(dp1
S'output'
p2
S"<type 'exceptions.TypeError'> pulse() takes no arguments (1 given)"
p3
sS'layer'
p4
S'/home/wantsomechocolate/Code/web2py/start/applications/movie_suggest/controllers/default.py'
p5
sS'code'
p6
S'# -*- coding: utf-8 -*-\n# this file is released under public domain and you can use without limitations\n\n#########################################################################\n## This is a sample controller\n## - index is the default action of any application\n## - user is required for authentication and authorization\n## - download is for downloading files uploaded in the db (does streaming)\n## - call exposes all registered services (none by default)\n#########################################################################\nimport requests\nimport json\n\ndef index():\n    """\n    example action using the internationalization operator T and flash\n    rendered by views/default/index.html or views/generic.html\n\n    if you need a simple wiki simply replace the two lines below with:\n    return auth.wiki()\n    """\n    return dict()\n\ndef grab_movies():\n    session.m=[]\n    KEY=\'uz7wfv82dhxwdwg7h3bme45u\'\n    url = requests.get(\'http://api.rottentomatoes.com/api/public/v1.0/\' + \'lists/movies/in_theaters.json?apikey={}\'.format(KEY))\n    \n    binary = url.content\n    output = json.loads(binary)\n    movies=output[\'movies\']\n    \n    for movie in movies:\n        session.m.append(pulse(movie[\'title\']))\n    session.m.sort()\n    return TABLE(*[TR(v) for v in session.m]).xml()\n\ndef pulse():\n    text = movie.replace(\'_\',\' \')\n    url = \'http://text-processing.com/api/sentiment/\'\n    data = {\'text\':text}\n    r = requests.post(url, data=data)\n    binary=r.content\n    output = json.loads(binary)\n    label=output[\'label\']\n    pos=output[\'probability\'][\'pos\']\n    neg = output[\'probability\'][\'neg\']\n    neutral=output[\'probability\'][\'neutral\']\n    return text, label, pos, neg, neutral\n\ndef user():\n    """\n    exposes:\n    http://..../[app]/default/user/login\n    http://..../[app]/default/user/logout\n    http://..../[app]/default/user/register\n    http://..../[app]/default/user/profile\n    http://..../[app]/default/user/retrieve_password\n    http://..../[app]/default/user/change_password\n    http://..../[app]/default/user/manage_users (requires membership in\n    use @auth.requires_login()\n        @auth.requires_membership(\'group name\')\n        @auth.requires_permission(\'read\',\'table name\',record_id)\n    to decorate functions that need access control\n    """\n    return dict(form=auth())\n\n@cache.action()\ndef download():\n    """\n    allows downloading of uploaded files\n    http://..../[app]/default/download/[filename]\n    """\n    return response.download(request, db)\n\n\ndef call():\n    """\n    exposes services. for example:\n    http://..../[app]/default/call/jsonrpc\n    decorate with @services.jsonrpc the functions to expose\n    supports xml, json, xmlrpc, jsonrpc, amfrpc, rss, csv\n    """\n    return service()\n\n\n@auth.requires_signature()\ndef data():\n    """\n    http://..../[app]/default/data/tables\n    http://..../[app]/default/data/create/[table]\n    http://..../[app]/default/data/read/[table]/[id]\n    http://..../[app]/default/data/update/[table]/[id]\n    http://..../[app]/default/data/delete/[table]/[id]\n    http://..../[app]/default/data/select/[table]\n    http://..../[app]/default/data/search/[table]\n    but URLs must be signed, i.e. linked with\n      A(\'table\',_href=URL(\'data/tables\',user_signature=True))\n    or with the signed load operator\n      LOAD(\'default\',\'data.load\',args=\'tables\',ajax=True,user_signature=True)\n    """\n    return dict(form=crud())\n\nresponse._vars=response._caller(grab_movies)\n'
p7
sS'snapshot'
p8
(dp9
S'exception'
p10
(dp11
S'__hash__'
p12
S"<method-wrapper '__hash__' of exceptions.TypeError object>"
p13
sS'__setattr__'
p14
S"<method-wrapper '__setattr__' of exceptions.TypeError object>"
p15
sS'__reduce_ex__'
p16
S'<built-in method __reduce_ex__ of exceptions.TypeError object>'
p17
sS'__getslice__'
p18
S"<method-wrapper '__getslice__' of exceptions.TypeError object>"
p19
sS'__getitem__'
p20
S"<method-wrapper '__getitem__' of exceptions.TypeError object>"
p21
sS'__setstate__'
p22
S'<built-in method __setstate__ of exceptions.TypeError object>'
p23
sS'args'
p24
S"('pulse() takes no arguments (1 given)',)"
p25
sS'__reduce__'
p26
S'<built-in method __reduce__ of exceptions.TypeError object>'
p27
sS'__str__'
p28
S"<method-wrapper '__str__' of exceptions.TypeError object>"
p29
sS'__format__'
p30
S'<built-in method __format__ of exceptions.TypeError object>'
p31
sS'__getattribute__'
p32
S"<method-wrapper '__getattribute__' of exceptions.TypeError object>"
p33
sS'__class__'
p34
S"<type 'exceptions.TypeError'>"
p35
sS'__unicode__'
p36
S'<built-in method __unicode__ of exceptions.TypeError object>'
p37
sS'__delattr__'
p38
S"<method-wrapper '__delattr__' of exceptions.TypeError object>"
p39
sS'__subclasshook__'
p40
S'<built-in method __subclasshook__ of type object>'
p41
sS'__repr__'
p42
S"<method-wrapper '__repr__' of exceptions.TypeError object>"
p43
sS'__dict__'
p44
S'{}'
p45
sS'__sizeof__'
p46
S'<built-in method __sizeof__ of exceptions.TypeError object>'
p47
sS'__doc__'
p48
S"'Inappropriate argument type.'"
p49
sS'__init__'
p50
S"<method-wrapper '__init__' of exceptions.TypeError object>"
p51
sS'__new__'
p52
S'<built-in method __new__ of type object>'
p53
ssS'evalue'
p54
S'pulse() takes no arguments (1 given)'
p55
sS'request'
p56
cgluon.html
XML_unpickle
p57
(S's\x01`\x00\x00<div><table><tr><td style="font-weight:bold;vertical-align:top;">ajax</td><td style="vertical-align:top;">:</td><td><div>True</div></td></tr><tr><td style="font-weight:bold;vertical-align:top;">application</td><td style="vertical-align:top;">:</td><td><div>movie_suggest</div></td></tr><tr><td style="font-weight:bold;vertical-align:top;">args</td><td style="vertical-align:top;">:</td><td><div><table></table></div></td></tr><tr><td style="font-weight:bold;vertical-align:top;">cid</td><td style="vertical-align:top;">:</td><td><div>None</div></td></tr><tr><td style="font-weight:bold;vertical-align:top;">client</td><td style="vertical-align:top;">:</td><td><div>127.0.0.1</div></td></tr><tr><td style="font-weight:bold;vertical-align:top;">controller</td><td style="vertical-align:top;">:</td><td><div>default</div></td></tr><tr><td style="font-weight:bold;vertical-align:top;">cookies</td><td style="vertical-align:top;">:</td><td><div><table><tr><td style="font-weight:bold;vertical-align:top;">session_id_admin</td><td style="vertical-align:top;">:</td><td><div>127.0.0.1-f1f2fec3-40d6-45fe-a3f5-407f1d0d2cf3<table><tr><td style="font-weight:bold;vertical-align:top;">comment</td><td style="vertical-align:top;">:</td><td><div></div></td></tr><tr><td style="font-weight:bold;vertical-align:top;">domain</td><td style="vertical-align:top;">:</td><td><div></div></td></tr><tr><td style="font-weight:bold;vertical-align:top;">expires</td><td style="vertical-align:top;">:</td><td><div></div></td></tr><tr><td style="font-weight:bold;vertical-align:top;">httponly</td><td style="vertical-align:top;">:</td><td><div></div></td></tr><tr><td style="font-weight:bold;vertical-align:top;">max-age</td><td style="vertical-align:top;">:</td><td><div></div></td></tr><tr><td style="font-weight:bold;vertical-align:top;">path</td><td style="vertical-align:top;">:</td><td><div></div></td></tr><tr><td style="font-weight:bold;vertical-align:top;">secure</td><td style="vertical-align:top;">:</td><td><div></div></td></tr><tr><td style="font-weight:bold;vertical-align:top;">version</td><td style="vertical-align:top;">:</td><td><div></div></td></tr></table></div></td></tr><tr><td style="font-weight:bold;vertical-align:top;">session_id_movie_suggest</td><td style="vertical-align:top;">:</td><td><div>127.0.0.1-38d6bc0b-6bf1-4304-ac80-fb6b83e03464<table><tr><td style="font-weight:bold;vertical-align:top;">comment</td><td style="vertical-align:top;">:</td><td><div></div></td></tr><tr><td style="font-weight:bold;vertical-align:top;">domain</td><td style="vertical-align:top;">:</td><td><div></div></td></tr><tr><td style="font-weight:bold;vertical-align:top;">expires</td><td style="vertical-align:top;">:</td><td><div></div></td></tr><tr><td style="font-weight:bold;vertical-align:top;">httponly</td><td style="vertical-align:top;">:</td><td><div></div></td></tr><tr><td style="font-weight:bold;vertical-align:top;">max-age</td><td style="vertical-align:top;">:</td><td><div></div></td></tr><tr><td style="font-weight:bold;vertical-align:top;">path</td><td style="vertical-align:top;">:</td><td><div></div></td></tr><tr><td style="font-weight:bold;vertical-align:top;">secure</td><td style="vertical-align:top;">:</td><td><div></div></td></tr><tr><td style="font-weight:bold;vertical-align:top;">version</td><td style="vertical-align:top;">:</td><td><div></div></td></tr></table></div></td></tr><tr><td style="font-weight:bold;vertical-align:top;">session_id_welcome</td><td style="vertical-align:top;">:</td><td><div>127.0.0.1-20bccbe1-618a-4365-a13e-5acc62d4cd57<table><tr><td style="font-weight:bold;vertical-align:top;">comment</td><td style="vertical-align:top;">:</td><td><div></div></td></tr><tr><td style="font-weight:bold;vertical-align:top;">domain</td><td style="vertical-align:top;">:</td><td><div></div></td></tr><tr><td style="font-weight:bold;vertical-align:top;">expires</td><td style="vertical-align:top;">:</td><td><div></div></td></tr><tr><td style="font-weight:bold;vertical-align:top;">httponly</td><td style="vertical-align:top;">:</td><td><div></div></td></tr><tr><td style="font-weight:bold;vertical-align:top;">max-age</td><td style="vertical-align:top;">:</td><td><div></div></td></tr><tr><td style="font-weight:bold;vertical-align:top;">path</td><td style="vertical-align:top;">:</td><td><div></div></td></tr><tr><td style="font-weight:bold;vertical-align:top;">secure</td><td style="vertical-align:top;">:</td><td><div></div></td></tr><tr><td style="font-weight:bold;vertical-align:top;">version</td><td style="vertical-align:top;">:</td><td><div></div></td></tr></table></div></td></tr></table></div></td></tr><tr><td style="font-weight:bold;vertical-align:top;">env</td><td style="vertical-align:top;">:</td><td><div><table><tr><td style="font-weight:bold;vertical-align:top;">CONTENT_LENGTH</td><td style="vertical-align:top;">:</td><td><div>0</div></td></tr><tr><td style="font-weight:bold;vertical-align:top;">HTTP_ACCEPT</td><td style="vertical-align:top;">:</td><td><div>*/*</div></td></tr><tr><td style="font-weight:bold;vertical-align:top;">HTTP_ACCEPT_ENCODING</td><td style="vertical-align:top;">:</td><td><div>gzip,deflate,sdch</div></td></tr><tr><td style="font-weight:bold;vertical-align:top;">HTTP_ACCEPT_LANGUAGE</td><td style="vertical-align:top;">:</td><td><div>en-US,en;q=0.8</div></td></tr><tr><td style="font-weight:bold;vertical-align:top;">HTTP_CONNECTION</td><td style="vertical-align:top;">:</td><td><div>keep-alive</div></td></tr><tr><td style="font-weight:bold;vertical-align:top;">HTTP_CONTENT_LENGTH</td><td style="vertical-align:top;">:</td><td><div>0</div></td></tr><tr><td style="font-weight:bold;vertical-align:top;">HTTP_COOKIE</td><td style="vertical-align:top;">:</td><td><div>session_id_welcome=127.0.0.1-20bccbe1-618a-4365-a13e-5acc62d4cd57; session_id_admin=127.0.0.1-f1f2fec3-40d6-45fe-a3f5-407f1d0d2cf3; session_id_movie_suggest=127.0.0.1-38d6bc0b-6bf1-4304-ac80-fb6b83e03464</div></td></tr><tr><td style="font-weight:bold;vertical-align:top;">HTTP_HOST</td><td style="vertical-align:top;">:</td><td><div>localhost:8000</div></td></tr><tr><td style="font-weight:bold;vertical-align:top;">HTTP_ORIGIN</td><td style="vertical-align:top;">:</td><td><div>http://localhost:8000</div></td></tr><tr><td style="font-weight:bold;vertical-align:top;">HTTP_REFERER</td><td style="vertical-align:top;">:</td><td><div>http://localhost:8000/movie_suggest/default/index</div></td></tr><tr><td style="font-weight:bold;vertical-align:top;">HTTP_USER_AGENT</td><td style="vertical-align:top;">:</td><td><div>Mozilla/5.0 (X11; Linux x86_64) AppleWebKit/537.36 (KHTML, like Gecko) Ubuntu Chromium/34.0.1847.116 Chrome/34.0.1847.116 Safari/537.36</div></td></tr><tr><td style="font-weight:bold;vertical-align:top;">HTTP_X_REQUESTED_WITH</td><td style="vertical-align:top;">:</td><td><div>XMLHttpRequest</div></td></tr><tr><td style="font-weight:bold;vertical-align:top;">PATH_INFO</td><td style="vertical-align:top;">:</td><td><div>/movie_suggest/default/grab_movies</div></td></tr><tr><td style="font-weight:bold;vertical-align:top;">QUERY_STRING</td><td style="vertical-align:top;">:</td><td><div></div></td></tr><tr><td style="font-weight:bold;vertical-align:top;">REMOTE_ADDR</td><td style="vertical-align:top;">:</td><td><div>127.0.0.1</div></td></tr><tr><td style="font-weight:bold;vertical-align:top;">REMOTE_PORT</td><td style="vertical-align:top;">:</td><td><div>34789</div></td></tr><tr><td style="font-weight:bold;vertical-align:top;">REQUEST_METHOD</td><td style="vertical-align:top;">:</td><td><div>POST</div></td></tr><tr><td style="font-weight:bold;vertical-align:top;">SCRIPT_NAME</td><td style="vertical-align:top;">:</td><td><div></div></td></tr><tr><td style="font-weight:bold;vertical-align:top;">SERVER_NAME</td><td style="vertical-align:top;">:</td><td><div>House</div></td></tr><tr><td style="font-weight:bold;vertical-align:top;">SERVER_PORT</td><td style="vertical-align:top;">:</td><td><div>8000</div></td></tr><tr><td style="font-weight:bold;vertical-align:top;">SERVER_PROTOCOL</td><td style="vertical-align:top;">:</td><td><div>HTTP/1.1</div></td></tr><tr><td style="font-weight:bold;vertical-align:top;">SERVER_SOFTWARE</td><td style="vertical-align:top;">:</td><td><div>Rocket 1.2.6</div></td></tr><tr><td style="font-weight:bold;vertical-align:top;">app_folders</td><td style="vertical-align:top;">:</td><td><div>set([&#x27;/home/wantsomechocolate/Code/web2py/start/applications/pulse/&#x27;, &#x27;/home/wantsomechocolate/Code/web2py/start/applications/admin/&#x27;, &#x27;/home/wantsomechocolate/Code/web2py/start/applications/welcome/&#x27;, &#x27;/home/wantsomechocolate/Code/web2py/start/applications/movie_suggest/&#x27;])</div></td></tr><tr><td style="font-weight:bold;vertical-align:top;">applications_parent</td><td style="vertical-align:top;">:</td><td><div>/home/wantsomechocolate/Code/web2py/start</div></td></tr><tr><td style="font-weight:bold;vertical-align:top;">cmd_args</td><td style="vertical-align:top;">:</td><td><div><table></table></div></td></tr><tr><td style="font-weight:bold;vertical-align:top;">cmd_options</td><td style="vertical-align:top;">:</td><td><div>&lt;Values at 0x2197ef0: {&#x27;verbose&#x27;: False, &#x27;ip&#x27;: &#x27;127.0.0.1&#x27;, &#x27;debuglevel&#x27;: 30, &#x27;with_scheduler&#x27;: False, &#x27;ips&#x27;: [&#x27;127.0.1.1&#x27;], &#x27;shutdown_timeout&#x27;: 5, &#x27;taskbar&#x27;: False, &#x27;with_coverage&#x27;: False, &#x27;port&#x27;: 8000, &#x27;maxthreads&#x27;: None, &#x27;softcron&#x27;: False, &#x27;server_name&#x27;: &#x27;House&#x27;, &#x27;bpython&#x27;: False, &#x27;nogui&#x27;: False, &#x27;pid_filename&#x27;: &#x27;httpserver.pid&#x27;, &#x27;extcron&#x27;: False, &#x27;runcron&#x27;: False, &#x27;run_system_tests&#x27;: False, &#x27;test&#x27;: None, &#x27;folder&#x27;: &#x27;/home/wantsomechocolate/Code/web2py/start&#x27;, &#x27;config&#x27;: &#x27;&#x27;, &#x27;minthreads&#x27;: None, &#x27;shell&#x27;: None, &#x27;run&#x27;: &#x27;&#x27;, &#x27;log_filename&#x27;: &#x27;httpserver.log&#x27;, &#x27;profiler_dir&#x27;: None, &#x27;args&#x27;: [&#x27;&#x27;], &#x27;socket_timeout&#x27;: 5, &#x27;ssl_ca_certificate&#x27;: None, &#x27;scheduler&#x27;: None, &#x27;interfaces&#x27;: None, &#x27;ssl_private_key&#x27;: &#x27;&#x27;, &#x27;scheduler_groups&#x27;: None, &#x27;password&#x27;: &#x27;&lt;ask&gt;&#x27;, &#x27;request_queue_size&#x27;: 5, &#x27;ssl_certificate&#x27;: &#x27;&#x27;, &#x27;cronjob&#x27;: False, &#x27;numthreads&#x27;: None, &#x27;quiet&#x27;: False, &#x27;import_models&#x27;: False, &#x27;timeout&#x27;: 10, &#x27;plain&#x27;: False, &#x27;nobanner&#x27;: False}&gt;</div></td></tr><tr><td style="font-weight:bold;vertical-align:top;">content_length</td><td style="vertical-align:top;">:</td><td><div>0</div></td></tr><tr><td style="font-weight:bold;vertical-align:top;">db_sessions</td><td style="vertical-align:top;">:</td><td><div>set([])</div></td></tr><tr><td style="font-weight:bold;vertical-align:top;">debugging</td><td style="vertical-align:top;">:</td><td><div>True</div></td></tr><tr><td style="font-weight:bold;vertical-align:top;">gluon_parent</td><td style="vertical-align:top;">:</td><td><div>/home/wantsomechocolate/Code/web2py/start</div></td></tr><tr><td style="font-weight:bold;vertical-align:top;">http_accept</td><td style="vertical-align:top;">:</td><td><div>*/*</div></td></tr><tr><td style="font-weight:bold;vertical-align:top;">http_accept_encoding</td><td style="vertical-align:top;">:</td><td><div>gzip,deflate,sdch</div></td></tr><tr><td style="font-weight:bold;vertical-align:top;">http_accept_language</td><td style="vertical-align:top;">:</td><td><div>en-US,en;q=0.8</div></td></tr><tr><td style="font-weight:bold;vertical-align:top;">http_connection</td><td style="vertical-align:top;">:</td><td><div>keep-alive</div></td></tr><tr><td style="font-weight:bold;vertical-align:top;">http_content_length</td><td style="vertical-align:top;">:</td><td><div>0</div></td></tr><tr><td style="font-weight:bold;vertical-align:top;">http_cookie</td><td style="vertical-align:top;">:</td><td><div>session_id_welcome=127.0.0.1-20bccbe1-618a-4365-a13e-5acc62d4cd57; session_id_admin=127.0.0.1-f1f2fec3-40d6-45fe-a3f5-407f1d0d2cf3; session_id_movie_suggest=127.0.0.1-38d6bc0b-6bf1-4304-ac80-fb6b83e03464</div></td></tr><tr><td style="font-weight:bold;vertical-align:top;">http_host</td><td style="vertical-align:top;">:</td><td><div>localhost:8000</div></td></tr><tr><td style="font-weight:bold;vertical-align:top;">http_origin</td><td style="vertical-align:top;">:</td><td><div>http://localhost:8000</div></td></tr><tr><td style="font-weight:bold;vertical-align:top;">http_referer</td><td style="vertical-align:top;">:</td><td><div>http://localhost:8000/movie_suggest/default/index</div></td></tr><tr><td style="font-weight:bold;vertical-align:top;">http_user_agent</td><td style="vertical-align:top;">:</td><td><div>Mozilla/5.0 (X11; Linux x86_64) AppleWebKit/537.36 (KHTML, like Gecko) Ubuntu Chromium/34.0.1847.116 Chrome/34.0.1847.116 Safari/537.36</div></td></tr><tr><td style="font-weight:bold;vertical-align:top;">http_x_requested_with</td><td style="vertical-align:top;">:</td><td><div>XMLHttpRequest</div></td></tr><tr><td style="font-weight:bold;vertical-align:top;">is_jython</td><td style="vertical-align:top;">:</td><td><div>False</div></td></tr><tr><td style="font-weight:bold;vertical-align:top;">is_pypy</td><td style="vertical-align:top;">:</td><td><div>False</div></td></tr><tr><td style="font-weight:bold;vertical-align:top;">is_source</td><td style="vertical-align:top;">:</td><td><div>True</div></td></tr><tr><td style="font-weight:bold;vertical-align:top;">local_hosts</td><td style="vertical-align:top;">:</td><td><div><table><tr><td><div>House</div></td></tr><tr><td><div>::1</div></td></tr><tr><td><div>127.0.1.1</div></td></tr><tr><td><div>::ffff:127.0.0.1</div></td></tr><tr><td><div>127.0.0.1</div></td></tr></table></div></td></tr><tr><td style="font-weight:bold;vertical-align:top;">path_info</td><td style="vertical-align:top;">:</td><td><div>/movie_suggest/default/grab_movies</div></td></tr><tr><td style="font-weight:bold;vertical-align:top;">query_string</td><td style="vertical-align:top;">:</td><td><div></div></td></tr><tr><td style="font-weight:bold;vertical-align:top;">remote_addr</td><td style="vertical-align:top;">:</td><td><div>127.0.0.1</div></td></tr><tr><td style="font-weight:bold;vertical-align:top;">remote_port</td><td style="vertical-align:top;">:</td><td><div>34789</div></td></tr><tr><td style="font-weight:bold;vertical-align:top;">request_method</td><td style="vertical-align:top;">:</td><td><div>POST</div></td></tr><tr><td style="font-weight:bold;vertical-align:top;">request_uri</td><td style="vertical-align:top;">:</td><td><div>/movie_suggest/default/grab_movies</div></td></tr><tr><td style="font-weight:bold;vertical-align:top;">script_name</td><td style="vertical-align:top;">:</td><td><div></div></td></tr><tr><td style="font-weight:bold;vertical-align:top;">server_name</td><td style="vertical-align:top;">:</td><td><div>House</div></td></tr><tr><td style="font-weight:bold;vertical-align:top;">server_port</td><td style="vertical-align:top;">:</td><td><div>8000</div></td></tr><tr><td style="font-weight:bold;vertical-align:top;">server_protocol</td><td style="vertical-align:top;">:</td><td><div>HTTP/1.1</div></td></tr><tr><td style="font-weight:bold;vertical-align:top;">server_software</td><td style="vertical-align:top;">:</td><td><div>Rocket 1.2.6</div></td></tr><tr><td style="font-weight:bold;vertical-align:top;">web2py_path</td><td style="vertical-align:top;">:</td><td><div>/home/wantsomechocolate/Code/web2py/start</div></td></tr><tr><td style="font-weight:bold;vertical-align:top;">web2py_version</td><td style="vertical-align:top;">:</td><td><div>2.9.5-stable+timestamp.2014.03.16.02.35.39</div></td></tr><tr><td style="font-weight:bold;vertical-align:top;">wsgi.errors</td><td style="vertical-align:top;">:</td><td><div>&lt;open file &#x27;&lt;stderr&gt;&#x27;, mode &#x27;w&#x27; at 0x7f3c18bd41e0&gt;</div></td></tr><tr><td style="font-weight:bold;vertical-align:top;">wsgi.file_wrapper</td><td style="vertical-align:top;">:</td><td><div>&lt;class wsgiref.util.FileWrapper at 0x2110808&gt;</div></td></tr><tr><td style="font-weight:bold;vertical-align:top;">wsgi.input</td><td style="vertical-align:top;">:</td><td><div>&lt;socket._fileobject object at 0x7f3bf02d6f50&gt;</div></td></tr><tr><td style="font-weight:bold;vertical-align:top;">wsgi.multiprocess</td><td style="vertical-align:top;">:</td><td><div>False</div></td></tr><tr><td style="font-weight:bold;vertical-align:top;">wsgi.multithread</td><td style="vertical-align:top;">:</td><td><div>True</div></td></tr><tr><td style="font-weight:bold;vertical-align:top;">wsgi.run_once</td><td style="vertical-align:top;">:</td><td><div>False</div></td></tr><tr><td style="font-weight:bold;vertical-align:top;">wsgi.url_scheme</td><td style="vertical-align:top;">:</td><td><div>http</div></td></tr><tr><td style="font-weight:bold;vertical-align:top;">wsgi.version</td><td style="vertical-align:top;">:</td><td><div><table><tr><td><div>1</div></td></tr><tr><td><div>0</div></td></tr></table></div></td></tr><tr><td style="font-weight:bold;vertical-align:top;">wsgi_errors</td><td style="vertical-align:top;">:</td><td><div>&lt;open file &#x27;&lt;stderr&gt;&#x27;, mode &#x27;w&#x27; at 0x7f3c18bd41e0&gt;</div></td></tr><tr><td style="font-weight:bold;vertical-align:top;">wsgi_file_wrapper</td><td style="vertical-align:top;">:</td><td><div>&lt;class wsgiref.util.FileWrapper at 0x2110808&gt;</div></td></tr><tr><td style="font-weight:bold;vertical-align:top;">wsgi_input</td><td style="vertical-align:top;">:</td><td><div>&lt;socket._fileobject object at 0x7f3bf02d6f50&gt;</div></td></tr><tr><td style="font-weight:bold;vertical-align:top;">wsgi_multiprocess</td><td style="vertical-align:top;">:</td><td><div>False</div></td></tr><tr><td style="font-weight:bold;vertical-align:top;">wsgi_multithread</td><td style="vertical-align:top;">:</td><td><div>True</div></td></tr><tr><td style="font-weight:bold;vertical-align:top;">wsgi_run_once</td><td style="vertical-align:top;">:</td><td><div>False</div></td></tr><tr><td style="font-weight:bold;vertical-align:top;">wsgi_url_scheme</td><td style="vertical-align:top;">:</td><td><div>http</div></td></tr><tr><td style="font-weight:bold;vertical-align:top;">wsgi_version</td><td style="vertical-align:top;">:</td><td><div><table><tr><td><div>1</div></td></tr><tr><td><div>0</div></td></tr></table></div></td></tr></table></div></td></tr><tr><td style="font-weight:bold;vertical-align:top;">extension</td><td style="vertical-align:top;">:</td><td><div>html</div></td></tr><tr><td style="font-weight:bold;vertical-align:top;">folder</td><td style="vertical-align:top;">:</td><td><div>/home/wantsomechocolate/Code/web2py/start/applications/movie_suggest/</div></td></tr><tr><td style="font-weight:bold;vertical-align:top;">function</td><td style="vertical-align:top;">:</td><td><div>grab_movies</div></td></tr><tr><td style="font-weight:bold;vertical-align:top;">global_settings</td><td style="vertical-align:top;">:</td><td><div><table><tr><td style="font-weight:bold;vertical-align:top;">app_folders</td><td style="vertical-align:top;">:</td><td><div>set([&#x27;/home/wantsomechocolate/Code/web2py/start/applications/pulse/&#x27;, &#x27;/home/wantsomechocolate/Code/web2py/start/applications/admin/&#x27;, &#x27;/home/wantsomechocolate/Code/web2py/start/applications/welcome/&#x27;, &#x27;/home/wantsomechocolate/Code/web2py/start/applications/movie_suggest/&#x27;])</div></td></tr><tr><td style="font-weight:bold;vertical-align:top;">applications_parent</td><td style="vertical-align:top;">:</td><td><div>/home/wantsomechocolate/Code/web2py/start</div></td></tr><tr><td style="font-weight:bold;vertical-align:top;">cmd_args</td><td style="vertical-align:top;">:</td><td><div><table></table></div></td></tr><tr><td style="font-weight:bold;vertical-align:top;">cmd_options</td><td style="vertical-align:top;">:</td><td><div>&lt;Values at 0x2197ef0: {&#x27;verbose&#x27;: False, &#x27;ip&#x27;: &#x27;127.0.0.1&#x27;, &#x27;debuglevel&#x27;: 30, &#x27;with_scheduler&#x27;: False, &#x27;ips&#x27;: [&#x27;127.0.1.1&#x27;], &#x27;shutdown_timeout&#x27;: 5, &#x27;taskbar&#x27;: False, &#x27;with_coverage&#x27;: False, &#x27;port&#x27;: 8000, &#x27;maxthreads&#x27;: None, &#x27;softcron&#x27;: False, &#x27;server_name&#x27;: &#x27;House&#x27;, &#x27;bpython&#x27;: False, &#x27;nogui&#x27;: False, &#x27;pid_filename&#x27;: &#x27;httpserver.pid&#x27;, &#x27;extcron&#x27;: False, &#x27;runcron&#x27;: False, &#x27;run_system_tests&#x27;: False, &#x27;test&#x27;: None, &#x27;folder&#x27;: &#x27;/home/wantsomechocolate/Code/web2py/start&#x27;, &#x27;config&#x27;: &#x27;&#x27;, &#x27;minthreads&#x27;: None, &#x27;shell&#x27;: None, &#x27;run&#x27;: &#x27;&#x27;, &#x27;log_filename&#x27;: &#x27;httpserver.log&#x27;, &#x27;profiler_dir&#x27;: None, &#x27;args&#x27;: [&#x27;&#x27;], &#x27;socket_timeout&#x27;: 5, &#x27;ssl_ca_certificate&#x27;: None, &#x27;scheduler&#x27;: None, &#x27;interfaces&#x27;: None, &#x27;ssl_private_key&#x27;: &#x27;&#x27;, &#x27;scheduler_groups&#x27;: None, &#x27;password&#x27;: &#x27;&lt;ask&gt;&#x27;, &#x27;request_queue_size&#x27;: 5, &#x27;ssl_certificate&#x27;: &#x27;&#x27;, &#x27;cronjob&#x27;: False, &#x27;numthreads&#x27;: None, &#x27;quiet&#x27;: False, &#x27;import_models&#x27;: False, &#x27;timeout&#x27;: 10, &#x27;plain&#x27;: False, &#x27;nobanner&#x27;: False}&gt;</div></td></tr><tr><td style="font-weight:bold;vertical-align:top;">db_sessions</td><td style="vertical-align:top;">:</td><td><div>set([])</div></td></tr><tr><td style="font-weight:bold;vertical-align:top;">debugging</td><td style="vertical-align:top;">:</td><td><div>True</div></td></tr><tr><td style="font-weight:bold;vertical-align:top;">gluon_parent</td><td style="vertical-align:top;">:</td><td><div>/home/wantsomechocolate/Code/web2py/start</div></td></tr><tr><td style="font-weight:bold;vertical-align:top;">is_jython</td><td style="vertical-align:top;">:</td><td><div>False</div></td></tr><tr><td style="font-weight:bold;vertical-align:top;">is_pypy</td><td style="vertical-align:top;">:</td><td><div>False</div></td></tr><tr><td style="font-weight:bold;vertical-align:top;">is_source</td><td style="vertical-align:top;">:</td><td><div>True</div></td></tr><tr><td style="font-weight:bold;vertical-align:top;">local_hosts</td><td style="vertical-align:top;">:</td><td><div><table><tr><td><div>House</div></td></tr><tr><td><div>::1</div></td></tr><tr><td><div>127.0.1.1</div></td></tr><tr><td><div>::ffff:127.0.0.1</div></td></tr><tr><td><div>127.0.0.1</div></td></tr></table></div></td></tr><tr><td style="font-weight:bold;vertical-align:top;">web2py_version</td><td style="vertical-align:top;">:</td><td><div>2.9.5-stable+timestamp.2014.03.16.02.35.39</div></td></tr></table></div></td></tr><tr><td style="font-weight:bold;vertical-align:top;">is_https</td><td style="vertical-align:top;">:</td><td><div>False</div></td></tr><tr><td style="font-weight:bold;vertical-align:top;">is_local</td><td style="vertical-align:top;">:</td><td><div>True</div></td></tr><tr><td style="font-weight:bold;vertical-align:top;">is_restful</td><td style="vertical-align:top;">:</td><td><div>False</div></td></tr><tr><td style="font-weight:bold;vertical-align:top;">now</td><td style="vertical-align:top;">:</td><td><div>datetime.datetime(2014, 7, 12, 2, 49, 0, 622364)</div></td></tr><tr><td style="font-weight:bold;vertical-align:top;">raw_args</td><td style="vertical-align:top;">:</td><td><div></div></td></tr><tr><td style="font-weight:bold;vertical-align:top;">raw_extension</td><td style="vertical-align:top;">:</td><td><div>None</div></td></tr><tr><td style="font-weight:bold;vertical-align:top;">url</td><td style="vertical-align:top;">:</td><td><div>/movie_suggest/default/grab_movies</div></td></tr><tr><td style="font-weight:bold;vertical-align:top;">utcnow</td><td style="vertical-align:top;">:</td><td><div>datetime.datetime(2014, 7, 12, 6, 49, 0, 622387)</div></td></tr><tr><td style="font-weight:bold;vertical-align:top;">uuid</td><td style="vertical-align:top;">:</td><td><div>movie_suggest/127.0.0.1.2014-07-12.02-49-00.8a95ab3d-1b30-4a30-b1aa-bb9d44a3c1c8</div></td></tr><tr><td style="font-weight:bold;vertical-align:top;">wsgi</td><td style="vertical-align:top;">:</td><td><div>&lt;gluon.main.LazyWSGI object at 0x7f3bdc092e10&gt;</div></td></tr></table></div>'
tRp58
sS'frames'
p59
(lp60
(dp61
S'file'
p62
S'/home/wantsomechocolate/Code/web2py/start/gluon/restricted.py'
p63
sS'dump'
p64
(dp65
S'environment'
p66
S"{'A': <class 'gluon.html.A'>, 'ANY_OF': <class 'gluon.validators.ANY_OF'>, 'Auth': <class 'gluon.tools.Auth'>, 'B': <class 'gluon.html.B'>, 'BEAUTIFY': <class 'gluon.html.BEAUTIFY'>, 'BODY': <class 'gluon.html.BODY'>, 'BR': <class 'gluon.html.BR'>, 'BUTTON': <class 'gluon.html.BUTTON'>, 'CAT': <class 'gluon.html.CAT'>, 'CENTER': <class 'gluon.html.CENTER'>, ...}"
p67
sS'ccode'
p68
S'<code object <module> at 0x7f3bf8153bb0, file "/...s/movie_suggest/controllers/default.py", line 11>'
p69
ssS'lnum'
p70
I220
sS'lines'
p71
(dp72
I224
S'        # do not encapsulate (obfuscate) the original RestrictedError'
p73
sI215
S'    try:'
p74
sI216
S'        if isinstance(code, types.CodeType):'
p75
sI217
S'            ccode = code'
p76
sI218
S'        else:'
p77
sI219
S'            ccode = compile2(code, layer)'
p78
sI220
S'        exec ccode in environment'
p79
sI221
S'    except HTTP:'
p80
sI222
S'        raise'
p81
sI223
S'    except RestrictedError:'
p82
ssS'call'
p83
S"(code='# -*- coding: utf-8 -*-\\n# this file is released ...))\\n\\nresponse._vars=response._caller(grab_movies)\\n', environment={'A': <class 'gluon.html.A'>, 'ANY_OF': <class 'gluon.validators.ANY_OF'>, 'Auth': <class 'gluon.tools.Auth'>, 'B': <class 'gluon.html.B'>, 'BEAUTIFY': <class 'gluon.html.BEAUTIFY'>, 'BODY': <class 'gluon.html.BODY'>, 'BR': <class 'gluon.html.BR'>, 'BUTTON': <class 'gluon.html.BUTTON'>, 'CAT': <class 'gluon.html.CAT'>, 'CENTER': <class 'gluon.html.CENTER'>, ...}, layer='/home/wantsomechocolate/Code/web2py/start/applications/movie_suggest/controllers/default.py')"
p84
sS'func'
p85
S'restricted'
p86
sa(dp87
g62
S'/home/wantsomechocolate/Code/web2py/start/applications/movie_suggest/controllers/default.py'
p88
sg64
(dp89
sg70
I104
sg71
(dp90
I96
S'    http://..../[app]/default/data/search/[table]'
p91
sI97
S'    but URLs must be signed, i.e. linked with'
p92
sI98
S"      A('table',_href=URL('data/tables',user_signature=True))"
p93
sI99
S'    or with the signed load operator'
p94
sI100
S"      LOAD('default','data.load',args='tables',ajax=True,user_signature=True)"
p95
sI101
S'    """'
p96
sI102
S'    return dict(form=crud())'
p97
sI93
S'    http://..../[app]/default/data/update/[table]/[id]'
p98
sI94
S'    http://..../[app]/default/data/delete/[table]/[id]'
p99
sI95
S'    http://..../[app]/default/data/select/[table]'
p100
ssg83
S'()'
p101
sg85
S'<module>'
p102
sa(dp103
g62
S'/home/wantsomechocolate/Code/web2py/start/gluon/globals.py'
p104
sg64
(dp105
S'self'
p106
S'undefined'
p107
sS'f'
S'<function grab_movies>'
p108
ssg70
I385
sg71
(dp109
I384
S'        self._vars = None'
p110
sI385
S'        self._caller = lambda f: f()'
p111
sI386
S'        self._view_environment = None'
p112
sI387
S'        self._custom_commit = None'
p113
sI388
S'        self._custom_rollback = None'
p114
sI389
S''
sI380
S'        self.menu = []             # used by the default view layout'
p115
sI381
S'        self.files = []            # used by web2py_ajax.html'
p116
sI382
S'        self.generic_patterns = []  # patterns to allow generic views'
p117
sI383
S"        self.delimiters = ('{{', '}}')"
p118
ssg83
S'(f=<function grab_movies>)'
p119
sg85
S'<lambda>'
p120
sa(dp121
g62
S'/home/wantsomechocolate/Code/web2py/start/applications/movie_suggest/controllers/default.py'
p122
sg64
(dp123
S'session.m.append'
p124
S'<built-in method append of list object>'
p125
sS'movie'
p126
S'{u\'abridged_cast\': [{u\'characters\': [u\'Cade Yeager\'], u\'id\': u\'162653181\', u\'name\': u\'Mark Wahlberg\'}, {u\'characters\': [u\'Shane Dyson\'], u\'id\': u\'771403543\', u\'name\': u\'Jack Reynor\'}, {u\'characters\': [u\'Tessa Yeager\'], u\'id\': u\'770833458\', u\'name\': u\'Nicola Peltz\'}, {u\'characters\': [u\'Joshua Joyce\'], u\'id\': u\'162661152\', u\'name\': u\'Stanley Tucci\'}, {u\'characters\': [u"Joshua\'s Assistant"], u\'id\': u\'771407347\', u\'name\': u\'Abigail Klein\'}], u\'alternate_ids\': {u\'imdb\': u\'2109248\'}, u\'critics_consensus\': u\'\', u\'id\': u\'771269858\', u\'links\': {u\'alternate\': u\'http://www.rottentomatoes.com/m/transformers_age_of_extinction/\', u\'cast\': u\'http://api.rottentomatoes.com/api/public/v1.0/movies/771269858/cast.json\', u\'reviews\': u\'http://api.rottentomatoes.com/api/public/v1.0/movies/771269858/reviews.json\', u\'self\': u\'http://api.rottentomatoes.com/api/public/v1.0/movies/771269858.json\', u\'similar\': u\'http://api.rottentomatoes.com/api/public/v1.0/movies/771269858/similar.json\'}, u\'mpaa_rating\': u\'PG-13\', u\'posters\': {u\'detailed\': u\'http://content9.flixster.com/movie/11/17/81/11178175_tmb.png\', u\'original\': u\'http://content9.flixster.com/movie/11/17/81/11178175_tmb.png\', u\'profile\': u\'http://content9.flixster.com/movie/11/17/81/11178175_tmb.png\', u\'thumbnail\': u\'http://content9.flixster.com/movie/11/17/81/11178175_tmb.png\'}, u\'ratings\': {u\'audience_rating\': u\'Spilled\', u\'audience_score\': 57, u\'critics_rating\': u\'Rotten\', u\'critics_score\': 17}, u\'release_dates\': {u\'theater\': u\'2014-06-27\'}, u\'runtime\': 157, ...}'
p127
sS'session.m'
p128
S'[]'
p129
sS'global session'
p130
S"<Storage {'m': [], '_user_agent': <Storage {'is_...version': '34.0.1847.116', 'name': 'Chrome'}>}>}>"
p131
sS'global pulse'
p132
S'<function pulse>'
p133
ssg70
I34
sg71
(dp134
I32
S''
sI33
S'    for movie in movies:'
p135
sI34
S"        session.m.append(pulse(movie['title']))"
p136
sI35
S'    session.m.sort()'
p137
sI36
S'    return TABLE(*[TR(v) for v in session.m]).xml()'
p138
sI37
S''
sI38
S'def pulse():'
p139
sI29
S'    binary = url.content'
p140
sI30
S'    output = json.loads(binary)'
p141
sI31
S"    movies=output['movies']"
p142
ssg83
S'()'
p143
sg85
S'grab_movies'
p144
sasS'pyver'
p145
S'Python 2.7.5+: /home/wantsomechocolate/Code/web2py/start/env/bin/python (prefix: /home/wantsomechocolate/Code/web2py/start/env)'
p146
sS'session'
p147
g57
(S's\xa3\x00\x00\x00<div><table><tr><td style="font-weight:bold;vertical-align:top;">m</td><td style="vertical-align:top;">:</td><td><div><table></table></div></td></tr></table></div>'
tRp148
sS'etype'
p149
S"<type 'exceptions.TypeError'>"
p150
sS'date'
p151
S'Sat Jul 12 02:49:01 2014'
p152
sS'response'
p153
g57
(S's\x162\x00\x00<div><table><tr><td style="font-weight:bold;vertical-align:top;">body</td><td style="vertical-align:top;">:</td><td><div>&lt;cStringIO.StringO object at 0x7f3c00336998&gt;</div></td></tr><tr><td style="font-weight:bold;vertical-align:top;">cookies</td><td style="vertical-align:top;">:</td><td><div><table><tr><td style="font-weight:bold;vertical-align:top;">session_id_movie_suggest</td><td style="vertical-align:top;">:</td><td><div>127.0.0.1-38d6bc0b-6bf1-4304-ac80-fb6b83e03464<table><tr><td style="font-weight:bold;vertical-align:top;">comment</td><td style="vertical-align:top;">:</td><td><div></div></td></tr><tr><td style="font-weight:bold;vertical-align:top;">domain</td><td style="vertical-align:top;">:</td><td><div></div></td></tr><tr><td style="font-weight:bold;vertical-align:top;">expires</td><td style="vertical-align:top;">:</td><td><div></div></td></tr><tr><td style="font-weight:bold;vertical-align:top;">httponly</td><td style="vertical-align:top;">:</td><td><div></div></td></tr><tr><td style="font-weight:bold;vertical-align:top;">max-age</td><td style="vertical-align:top;">:</td><td><div></div></td></tr><tr><td style="font-weight:bold;vertical-align:top;">path</td><td style="vertical-align:top;">:</td><td><div>/</div></td></tr><tr><td style="font-weight:bold;vertical-align:top;">secure</td><td style="vertical-align:top;">:</td><td><div></div></td></tr><tr><td style="font-weight:bold;vertical-align:top;">version</td><td style="vertical-align:top;">:</td><td><div></div></td></tr></table></div></td></tr></table></div></td></tr><tr><td style="font-weight:bold;vertical-align:top;">delimiters</td><td style="vertical-align:top;">:</td><td><div><table><tr><td><div>{{</div></td></tr><tr><td><div>}}</div></td></tr></table></div></td></tr><tr><td style="font-weight:bold;vertical-align:top;">files</td><td style="vertical-align:top;">:</td><td><div><table></table></div></td></tr><tr><td style="font-weight:bold;vertical-align:top;">flash</td><td style="vertical-align:top;">:</td><td><div></div></td></tr><tr><td style="font-weight:bold;vertical-align:top;">generic_patterns</td><td style="vertical-align:top;">:</td><td><div><table><tr><td><div>*</div></td></tr></table></div></td></tr><tr><td style="font-weight:bold;vertical-align:top;">google_analytics_id</td><td style="vertical-align:top;">:</td><td><div>None</div></td></tr><tr><td style="font-weight:bold;vertical-align:top;">headers</td><td style="vertical-align:top;">:</td><td><div><table><tr><td style="font-weight:bold;vertical-align:top;">X-Powered-By</td><td style="vertical-align:top;">:</td><td><div>web2py</div></td></tr></table></div></td></tr><tr><td style="font-weight:bold;vertical-align:top;">logo</td><td style="vertical-align:top;">:</td><td><div><a class="brand" href="http://www.web2py.com/"><b>web<span>2</span>py</b>&trade;&nbsp;</a></div></td></tr><tr><td style="font-weight:bold;vertical-align:top;">menu</td><td style="vertical-align:top;">:</td><td><div><table><tr><td><div><table><tr><td><div>Home</div></td></tr><tr><td><div>False</div></td></tr><tr><td><div>/movie_suggest/default/index</div></td></tr><tr><td><div><table></table></div></td></tr></table></div></td></tr><tr><td><div><table><tr><td><div><span class="highlighted">web2py</span></div></td></tr><tr><td><div>False</div></td></tr><tr><td><div>http://web2py.com</div></td></tr><tr><td><div><table><tr><td><div><table><tr><td><div>My Sites</div></td></tr><tr><td><div>False</div></td></tr><tr><td><div>/admin/default/site</div></td></tr></table></div></td></tr><tr><td><div><table><tr><td><div>This App</div></td></tr><tr><td><div>False</div></td></tr><tr><td><div>/admin/default/design/movie_suggest</div></td></tr><tr><td><div>[(&lt;lazyT &#x27;Controller&#x27;&gt;, False, &#x27;/admin/default/edit/movie_suggest/controllers/default.py&#x27;), (&lt;lazyT &#x27;View&#x27;&gt;, False, &#x27;/admin/default/edit/movie_suggest/views/default/grab_movies.html&#x27;), (&lt;lazyT &#x27;Layout&#x27;&gt;, False, &#x27;/admin/default/edit/movie_suggest/views/layout.html&#x27;), (&lt;lazyT &#x27;Stylesheet&#x27;&gt;, False, &#x27;/admin/default/edit/movie_suggest/static/css/web2py.css&#x27;), (&lt;lazyT &#x27;DB Model&#x27;&gt;, False, &#x27;/admin/default/edit/movie_suggest/models/db.py&#x27;), (&lt;lazyT &#x27;Menu Model&#x27;&gt;, False, &#x27;/admin/default/edit/movie_suggest/models/menu.py&#x27;), (&lt;lazyT &#x27;Database&#x27;&gt;, False, &#x27;/movie_suggest/appadmin/index&#x27;), (&lt;lazyT &#x27;Errors&#x27;&gt;, False, &#x27;/admin/default/errors/movie_suggest&#x27;), (&lt;lazyT &#x27;About&#x27;&gt;, False, &#x27;/admin/default/about/movie_suggest&#x27;)]</div></td></tr></table></div></td></tr><tr><td><div><table><tr><td><div>web2py.com</div></td></tr><tr><td><div>False</div></td></tr><tr><td><div>http://www.web2py.com</div></td></tr><tr><td><div>[(&lt;lazyT &#x27;Download&#x27;&gt;, False, &#x27;http://www.web2py.com/examples/default/download&#x27;), (&lt;lazyT &#x27;Support&#x27;&gt;, False, &#x27;http://www.web2py.com/examples/default/support&#x27;), (&lt;lazyT &#x27;Demo&#x27;&gt;, False, &#x27;http://web2py.com/demo_admin&#x27;), (&lt;lazyT &#x27;Quick Examples&#x27;&gt;, False, &#x27;http://web2py.com/examples/default/examples&#x27;), (&lt;lazyT &#x27;FAQ&#x27;&gt;, False, &#x27;http://web2py.com/AlterEgo&#x27;), (&lt;lazyT &#x27;Videos&#x27;&gt;, False, &#x27;http://www.web2py.com/examples/default/videos/&#x27;), (&lt;lazyT &#x27;Free Applications&#x27;&gt;, False, &#x27;http://web2py.com/appliances&#x27;), (&lt;lazyT &#x27;Plugins&#x27;&gt;, False, &#x27;http://web2py.com/plugins&#x27;), (&lt;lazyT &#x27;Layouts&#x27;&gt;, False, &#x27;http://web2py.com/layouts&#x27;), (&lt;lazyT &#x27;Recipes&#x27;&gt;, False, &#x27;http://web2pyslices.com/&#x27;), (&lt;lazyT &#x27;Semantic&#x27;&gt;, False, &#x27;http://web2py.com/semantic&#x27;)]</div></td></tr></table></div></td></tr><tr><td><div><table><tr><td><div>Documentation</div></td></tr><tr><td><div>False</div></td></tr><tr><td><div>http://www.web2py.com/book</div></td></tr><tr><td><div>[(&lt;lazyT &#x27;Preface&#x27;&gt;, False, &#x27;http://www.web2py.com/book/default/chapter/00&#x27;), (&lt;lazyT &#x27;Introduction&#x27;&gt;, False, &#x27;http://www.web2py.com/book/default/chapter/01&#x27;), (&lt;lazyT &#x27;Python&#x27;&gt;, False, &#x27;http://www.web2py.com/book/default/chapter/02&#x27;), (&lt;lazyT &#x27;Overview&#x27;&gt;, False, &#x27;http://www.web2py.com/book/default/chapter/03&#x27;), (&lt;lazyT &#x27;The Core&#x27;&gt;, False, &#x27;http://www.web2py.com/book/default/chapter/04&#x27;), (&lt;lazyT &#x27;The Views&#x27;&gt;, False, &#x27;http://www.web2py.com/book/default/chapter/05&#x27;), (&lt;lazyT &#x27;Database&#x27;&gt;, False, &#x27;http://www.web2py.com/book/default/chapter/06&#x27;), (&lt;lazyT &#x27;Forms and Validators&#x27;&gt;, False, &#x27;http://www.web2py.com/book/default/chapter/07&#x27;), (&lt;lazyT &#x27;Email and SMS&#x27;&gt;, False, &#x27;http://www.web2py.com/book/default/chapter/08&#x27;), (&lt;lazyT &#x27;Access Control&#x27;&gt;, False, &#x27;http://www.web2py.com/book/default/chapter/09&#x27;), (&lt;lazyT &#x27;Services&#x27;&gt;, False, &#x27;http://www.web2py.com/book/default/chapter/10&#x27;), (&lt;lazyT &#x27;Ajax Recipes&#x27;&gt;, False, &#x27;http://www.web2py.com/book/default/chapter/11&#x27;), (&lt;lazyT &#x27;Components and Plugins&#x27;&gt;, False, &#x27;http://www.web2py.com/book/default/chapter/12&#x27;), (&lt;lazyT &#x27;Deployment Recipes&#x27;&gt;, False, &#x27;http://www.web2py.com/book/default/chapter/13&#x27;), (&lt;lazyT &#x27;Other Recipes&#x27;&gt;, False, &#x27;http://www.web2py.com/book/default/chapter/14&#x27;), (&lt;lazyT &#x27;Buy this book&#x27;&gt;, False, &#x27;http://stores.lulu.com/web2py&#x27;)]</div></td></tr></table></div></td></tr><tr><td><div><table><tr><td><div>Community</div></td></tr><tr><td><div>False</div></td></tr><tr><td><div>None</div></td></tr><tr><td><div>[(&lt;lazyT &#x27;Groups&#x27;&gt;, False, &#x27;http://www.web2py.com/examples/default/usergroups&#x27;), (&lt;lazyT &#x27;Twitter&#x27;&gt;, False, &#x27;http://twitter.com/web2py&#x27;), (&lt;lazyT &#x27;Live Chat&#x27;&gt;, False, &#x27;http://webchat.freenode.net/?channels=web2py&#x27;)]</div></td></tr></table></div></td></tr><tr><td><div><table><tr><td><div>Plugins</div></td></tr><tr><td><div>False</div></td></tr><tr><td><div>None</div></td></tr><tr><td><div>[(&#x27;plugin_wiki&#x27;, False, &#x27;http://web2py.com/examples/default/download&#x27;), (&lt;lazyT &#x27;Other Plugins&#x27;&gt;, False, &#x27;http://web2py.com/plugins&#x27;), (&lt;lazyT &#x27;Layout Plugins&#x27;&gt;, False, &#x27;http://web2py.com/layouts&#x27;)]</div></td></tr></table></div></td></tr></table></div></td></tr></table></div></td></tr></table></div></td></tr><tr><td style="font-weight:bold;vertical-align:top;">meta</td><td style="vertical-align:top;">:</td><td><div><table><tr><td style="font-weight:bold;vertical-align:top;">author</td><td style="vertical-align:top;">:</td><td><div>Your Name &lt;you@example.com&gt;</div></td></tr><tr><td style="font-weight:bold;vertical-align:top;">generator</td><td style="vertical-align:top;">:</td><td><div>Web2py Web Framework</div></td></tr><tr><td style="font-weight:bold;vertical-align:top;">keywords</td><td style="vertical-align:top;">:</td><td><div>web2py, python, framework</div></td></tr></table></div></td></tr><tr><td style="font-weight:bold;vertical-align:top;">models_to_run</td><td style="vertical-align:top;">:</td><td><div><table><tr><td><div>^\\w+\\.py$</div></td></tr><tr><td><div>^default/\\w+\\.py$</div></td></tr><tr><td><div>^default/grab_movies/\\w+\\.py$</div></td></tr></table></div></td></tr><tr><td style="font-weight:bold;vertical-align:top;">postprocessing</td><td style="vertical-align:top;">:</td><td><div><table></table></div></td></tr><tr><td style="font-weight:bold;vertical-align:top;">session_client</td><td style="vertical-align:top;">:</td><td><div>127.0.0.1</div></td></tr><tr><td style="font-weight:bold;vertical-align:top;">session_cookie_compression_level</td><td style="vertical-align:top;">:</td><td><div>None</div></td></tr><tr><td style="font-weight:bold;vertical-align:top;">session_cookie_expires</td><td style="vertical-align:top;">:</td><td><div>None</div></td></tr><tr><td style="font-weight:bold;vertical-align:top;">session_cookie_key</td><td style="vertical-align:top;">:</td><td><div>None</div></td></tr><tr><td style="font-weight:bold;vertical-align:top;">session_data_name</td><td style="vertical-align:top;">:</td><td><div>session_data_movie_suggest</div></td></tr><tr><td style="font-weight:bold;vertical-align:top;">session_file</td><td style="vertical-align:top;">:</td><td><div>&lt;open file &#x27;/home/wantsomechocolate/Code/web2py/start/applications/movie_suggest/sessions/127.0.0.1-38d6bc0b-6bf1-4304-ac80-fb6b83e03464&#x27;, mode &#x27;rb+&#x27; at 0x7f3bec6be540&gt;</div></td></tr><tr><td style="font-weight:bold;vertical-align:top;">session_filename</td><td style="vertical-align:top;">:</td><td><div>/home/wantsomechocolate/Code/web2py/start/applications/movie_suggest/sessions/127.0.0.1-38d6bc0b-6bf1-4304-ac80-fb6b83e03464</div></td></tr><tr><td style="font-weight:bold;vertical-align:top;">session_hash</td><td style="vertical-align:top;">:</td><td><div>eb020f64563b60d5b195b434a1da1774</div></td></tr><tr><td style="font-weight:bold;vertical-align:top;">session_id</td><td style="vertical-align:top;">:</td><td><div>127.0.0.1-38d6bc0b-6bf1-4304-ac80-fb6b83e03464</div></td></tr><tr><td style="font-weight:bold;vertical-align:top;">session_id_name</td><td style="vertical-align:top;">:</td><td><div>session_id_movie_suggest</div></td></tr><tr><td style="font-weight:bold;vertical-align:top;">session_locked</td><td style="vertical-align:top;">:</td><td><div>True</div></td></tr><tr><td style="font-weight:bold;vertical-align:top;">session_masterapp</td><td style="vertical-align:top;">:</td><td><div>movie_suggest</div></td></tr><tr><td style="font-weight:bold;vertical-align:top;">session_new</td><td style="vertical-align:top;">:</td><td><div>False</div></td></tr><tr><td style="font-weight:bold;vertical-align:top;">session_storage_type</td><td style="vertical-align:top;">:</td><td><div>file</div></td></tr><tr><td style="font-weight:bold;vertical-align:top;">status</td><td style="vertical-align:top;">:</td><td><div>200</div></td></tr><tr><td style="font-weight:bold;vertical-align:top;">subtitle</td><td style="vertical-align:top;">:</td><td><div></div></td></tr><tr><td style="font-weight:bold;vertical-align:top;">title</td><td style="vertical-align:top;">:</td><td><div>Movie Suggest</div></td></tr><tr><td style="font-weight:bold;vertical-align:top;">view</td><td style="vertical-align:top;">:</td><td><div>default/grab_movies.html</div></td></tr></table></div>'
tRp154
sS'locals'
p155
(dp156
S'binary'
p157
S'\'\\n\\n\\n\\n\\n\\n\\n\\n\\n\\n\\n\\n\\n\\n\\n\\n\\n\\n\\n\\n\\n\\n\\n\\n\\n\\n\\n\\n\\n\\n\\n\\n\\n{"total":123,"m...}&page={page_number}&country={country-code}"}\\n\\n\\n\\n\''
p158
sS'url'
p159
S'<Response [200]>'
p160
sS'movie'
p161
S'{u\'abridged_cast\': [{u\'characters\': [u\'Cade Yeager\'], u\'id\': u\'162653181\', u\'name\': u\'Mark Wahlberg\'}, {u\'characters\': [u\'Shane Dyson\'], u\'id\': u\'771403543\', u\'name\': u\'Jack Reynor\'}, {u\'characters\': [u\'Tessa Yeager\'], u\'id\': u\'770833458\', u\'name\': u\'Nicola Peltz\'}, {u\'characters\': [u\'Joshua Joyce\'], u\'id\': u\'162661152\', u\'name\': u\'Stanley Tucci\'}, {u\'characters\': [u"Joshua\'s Assistant"], u\'id\': u\'771407347\', u\'name\': u\'Abigail Klein\'}], u\'alternate_ids\': {u\'imdb\': u\'2109248\'}, u\'critics_consensus\': u\'\', u\'id\': u\'771269858\', u\'links\': {u\'alternate\': u\'http://www.rottentomatoes.com/m/transformers_age_of_extinction/\', u\'cast\': u\'http://api.rottentomatoes.com/api/public/v1.0/movies/771269858/cast.json\', u\'reviews\': u\'http://api.rottentomatoes.com/api/public/v1.0/movies/771269858/reviews.json\', u\'self\': u\'http://api.rottentomatoes.com/api/public/v1.0/movies/771269858.json\', u\'similar\': u\'http://api.rottentomatoes.com/api/public/v1.0/movies/771269858/similar.json\'}, u\'mpaa_rating\': u\'PG-13\', u\'posters\': {u\'detailed\': u\'http://content9.flixster.com/movie/11/17/81/11178175_tmb.png\', u\'original\': u\'http://content9.flixster.com/movie/11/17/81/11178175_tmb.png\', u\'profile\': u\'http://content9.flixster.com/movie/11/17/81/11178175_tmb.png\', u\'thumbnail\': u\'http://content9.flixster.com/movie/11/17/81/11178175_tmb.png\'}, u\'ratings\': {u\'audience_rating\': u\'Spilled\', u\'audience_score\': 57, u\'critics_rating\': u\'Rotten\', u\'critics_score\': 17}, u\'release_dates\': {u\'theater\': u\'2014-06-27\'}, u\'runtime\': 157, ...}'
p162
sS'movies'
p163
S'[{u\'abridged_cast\': [{u\'characters\': [u\'Cade Yeager\'], u\'id\': u\'162653181\', u\'name\': u\'Mark Wahlberg\'}, {u\'characters\': [u\'Shane Dyson\'], u\'id\': u\'771403543\', u\'name\': u\'Jack Reynor\'}, {u\'characters\': [u\'Tessa Yeager\'], u\'id\': u\'770833458\', u\'name\': u\'Nicola Peltz\'}, {u\'characters\': [u\'Joshua Joyce\'], u\'id\': u\'162661152\', u\'name\': u\'Stanley Tucci\'}, {u\'characters\': [u"Joshua\'s Assistant"], u\'id\': u\'771407347\', u\'name\': u\'Abigail Klein\'}], u\'alternate_ids\': {u\'imdb\': u\'2109248\'}, u\'critics_consensus\': u\'\', u\'id\': u\'771269858\', u\'links\': {u\'alternate\': u\'http://www.rottentomatoes.com/m/transformers_age_of_extinction/\', u\'cast\': u\'http://api.rottentomatoes.com/api/public/v1.0/movies/771269858/cast.json\', u\'reviews\': u\'http://api.rottentomatoes.com/api/public/v1.0/movies/771269858/reviews.json\', u\'self\': u\'http://api.rottentomatoes.com/api/public/v1.0/movies/771269858.json\', u\'similar\': u\'http://api.rottentomatoes.com/api/public/v1.0/movies/771269858/similar.json\'}, u\'mpaa_rating\': u\'PG-13\', u\'posters\': {u\'detailed\': u\'http://content9.flixster.com/movie/11/17/81/11178175_tmb.png\', u\'original\': u\'http://content9.flixster.com/movie/11/17/81/11178175_tmb.png\', u\'profile\': u\'http://content9.flixster.com/movie/11/17/81/11178175_tmb.png\', u\'thumbnail\': u\'http://content9.flixster.com/movie/11/17/81/11178175_tmb.png\'}, u\'ratings\': {u\'audience_rating\': u\'Spilled\', u\'audience_score\': 57, u\'critics_rating\': u\'Rotten\', u\'critics_score\': 17}, u\'release_dates\': {u\'theater\': u\'2014-06-27\'}, u\'runtime\': 157, ...}, {u\'abridged_cast\': [{u\'characters\': [u\'Tammy\'], u\'id\': u\'528361348\', u\'name\': u\'Melissa McCarthy\'}, {u\'characters\': [u\'Pearl\'], u\'id\': u\'162654579\', u\'name\': u\'Susan Sarandon\'}, {u\'characters\': [u\'Lenore\'], u\'id\': u\'162660148\', u\'name\': u\'Kathy Bates\'}, {u\'characters\': [u\'Bobby\'], u\'id\': u\'388618670\', u\'name\': u\'Mark Duplass\'}, {u\'characters\': [u\'Don\'], u\'id\': u\'162664389\', u\'name\': u\'Dan Aykroyd\'}], u\'alternate_ids\': {u\'imdb\': u\'2103254\'}, u\'critics_consensus\': u\'\', u\'id\': u\'771355411\', u\'links\': {u\'alternate\': u\'http://www.rottentomatoes.com/m/tammy_2014/\', u\'cast\': u\'http://api.rottentomatoes.com/api/public/v1.0/movies/771355411/cast.json\', u\'reviews\': u\'http://api.rottentomatoes.com/api/public/v1.0/movies/771355411/reviews.json\', u\'self\': u\'http://api.rottentomatoes.com/api/public/v1.0/movies/771355411.json\', u\'similar\': u\'http://api.rottentomatoes.com/api/public/v1.0/movies/771355411/similar.json\'}, u\'mpaa_rating\': u\'R\', u\'posters\': {u\'detailed\': u\'http://content7.flixster.com/movie/11/17/90/11179013_tmb.jpg\', u\'original\': u\'http://content7.flixster.com/movie/11/17/90/11179013_tmb.jpg\', u\'profile\': u\'http://content7.flixster.com/movie/11/17/90/11179013_tmb.jpg\', u\'thumbnail\': u\'http://content7.flixster.com/movie/11/17/90/11179013_tmb.jpg\'}, u\'ratings\': {u\'audience_rating\': u\'Spilled\', u\'audience_score\': 43, u\'critics_rating\': u\'Rotten\', u\'critics_score\': 23}, u\'release_dates\': {u\'theater\': u\'2014-07-02\'}, u\'runtime\': 96, ...}, {u\'abridged_cast\': [{u\'characters\': [u\'Alex\'], u\'id\': u\'771452922\', u\'name\': u\'Teo Halm\'}, {u\'characters\': [u\'Tuck\'], u\'id\': u\'770769927\', u\'name\': u\'Astro\'}, {u\'characters\': [u\'Emma\'], u\'id\': u\'771483962\', u\'name\': u\'Ella Linnea Wahlestedt\'}, {u\'characters\': [u\'Munch\'], u\'id\': u\'771452923\', u\'name\': u\'Reese C. Hartwig\'}, {u\'characters\': [u\'Dr. Lawrence Madsen\'], u\'id\': u\'479129525\', u\'name\': u\'Jason Gray-Stanford\'}], u\'alternate_ids\': {u\'imdb\': u\'2183034\'}, u\'critics_consensus\': u\'\', u\'id\': u\'771356653\', u\'links\': {u\'alternate\': u\'http://www.rottentomatoes.com/m/earth_to_echo/\', u\'cast\': u\'http://api.rottentomatoes.com/api/public/v1.0/movies/771356653/cast.json\', u\'reviews\': u\'http://api.rottentomatoes.com/api/public/v1.0/movies/771356653/reviews.json\', u\'self\': u\'http://api.rottentomatoes.com/api/public/v1.0/movies/771356653.json\', u\'similar\': u\'http://api.rottentomatoes.com/api/public/v1.0/movies/771356653/similar.json\'}, u\'mpaa_rating\': u\'PG\', u\'posters\': {u\'detailed\': u\'http://content6.flixster.com/movie/11/17/80/11178084_tmb.jpg\', u\'original\': u\'http://content6.flixster.com/movie/11/17/80/11178084_tmb.jpg\', u\'profile\': u\'http://content6.flixster.com/movie/11/17/80/11178084_tmb.jpg\', u\'thumbnail\': u\'http://content6.flixster.com/movie/11/17/80/11178084_tmb.jpg\'}, u\'ratings\': {u\'audience_rating\': u\'Spilled\', u\'audience_score\': 52, u\'critics_rating\': u\'Rotten\', u\'critics_score\': 48}, u\'release_dates\': {u\'theater\': u\'2014-07-02\'}, u\'runtime\': 89, ...}, {u\'abridged_cast\': [{u\'characters\': [u\'Hiccup\'], u\'id\': u\'259260120\', u\'name\': u\'Jay Baruchel\'}, {u\'characters\': [u\'Stoick\'], u\'id\': u\'162659102\', u\'name\': u\'Gerard Butler\'}, {u\'characters\': [u\'Astrid\'], u\'id\': u\'162652611\', u\'name\': u\'America Ferrera\'}, {u\'characters\': [u\'Snotlout\'], u\'id\': u\'326297850\', u\'name\': u\'Jonah Hill\'}, {u\'characters\': [u\'Fishlegs\'], u\'id\': u\'770679139\', u\'name\': u\'Christopher Mintz-Plasse\'}], u\'alternate_ids\': {u\'imdb\': u\'1646971\'}, u\'critics_consensus\': u\'\', u\'id\': u\'771040382\', u\'links\': {u\'alternate\': u\'http://www.rottentomatoes.com/m/how_to_train_your_dragon_2/\', u\'cast\': u\'http://api.rottentomatoes.com/api/public/v1.0/movies/771040382/cast.json\', u\'reviews\': u\'http://api.rottentomatoes.com/api/public/v1.0/movies/771040382/reviews.json\', u\'self\': u\'http://api.rottentomatoes.com/api/public/v1.0/movies/771040382.json\', u\'similar\': u\'http://api.rottentomatoes.com/api/public/v1.0/movies/771040382/similar.json\'}, u\'mpaa_rating\': u\'PG\', u\'posters\': {u\'detailed\': u\'http://content6.flixster.com/movie/11/17/84/11178428_tmb.jpg\', u\'original\': u\'http://content6.flixster.com/movie/11/17/84/11178428_tmb.jpg\', u\'profile\': u\'http://content6.flixster.com/movie/11/17/84/11178428_tmb.jpg\', u\'thumbnail\': u\'http://content6.flixster.com/movie/11/17/84/11178428_tmb.jpg\'}, u\'ratings\': {u\'audience_rating\': u\'Upright\', u\'audience_score\': 93, u\'critics_rating\': u\'Certified Fresh\', u\'critics_score\': 92}, u\'release_dates\': {u\'dvd\': u\'2014-12-11\', u\'theater\': u\'2014-06-13\'}, u\'runtime\': 105, ...}, {u\'abridged_cast\': [{u\'characters\': [u\'Sarchie\'], u\'id\': u\'162662190\', u\'name\': u\'Eric Bana\'}, {u\'characters\': [u\'Mendoza\'], u\'id\': u\'770669707\', u\'name\': u\'Edgar Ramirez\'}, {u\'characters\': [u\'Jen\'], u\'id\': u\'770797421\', u\'name\': u\'Olivia Munn\'}, {u\'characters\': [u\'Santino\'], u\'id\': u\'162653243\', u\'name\': u\'Sean Harris\'}, {u\'characters\': [u\'Butler\'], u\'id\': u\'770792384\', u\'name\': u\'Joel McHale\'}], u\'alternate_ids\': {u\'imdb\': u\'2377322\'}, u\'critics_consensus\': u\'\', u\'id\': u\'771371567\', u\'links\': {u\'alternate\': u\'http://www.rottentomatoes.com/m/deliver_us_from_evil_2014/\', u\'cast\': u\'http://api.rottentomatoes.com/api/public/v1.0/movies/771371567/cast.json\', u\'reviews\': u\'http://api.rottentomatoes.com/api/public/v1.0/movies/771371567/reviews.json\', u\'self\': u\'http://api.rottentomatoes.com/api/public/v1.0/movies/771371567.json\', u\'similar\': u\'http://api.rottentomatoes.com/api/public/v1.0/movies/771371567/similar.json\'}, u\'mpaa_rating\': u\'R\', u\'posters\': {u\'detailed\': u\'http://content9.flixster.com/movie/11/17/84/11178479_tmb.jpg\', u\'original\': u\'http://content9.flixster.com/movie/11/17/84/11178479_tmb.jpg\', u\'profile\': u\'http://content9.flixster.com/movie/11/17/84/11178479_tmb.jpg\', u\'thumbnail\': u\'http://content9.flixster.com/movie/11/17/84/11178479_tmb.jpg\'}, u\'ratings\': {u\'audience_rating\': u\'Spilled\', u\'audience_score\': 48, u\'critics_rating\': u\'Rotten\', u\'critics_score\': 30}, u\'release_dates\': {u\'theater\': u\'2014-07-02\'}, u\'runtime\': 118, ...}, {u\'abridged_cast\': [{u\'characters\': [u\'Schmidt\'], u\'id\': u\'326297850\', u\'name\': u\'Jonah Hill\'}, {u\'characters\': [u\'Jenko\'], u\'id\': u\'162661835\', u\'name\': u\'Channing Tatum\'}, {u\'characters\': [u\'The Ghost\'], u\'id\': u\'162725032\', u\'name\': u\'Peter Stormare\'}, {u\'characters\': [u\'Captain Dickson\'], u\'id\': u\'162652332\', u\'name\': u\'Ice Cube\'}, {u\'characters\': [u\'Maya\'], u\'id\': u\'770793901\', u\'name\': u\'Amber Stevens\'}], u\'alternate_ids\': {u\'imdb\': u\'2294449\'}, u\'critics_consensus\': u\'\', u\'id\': u\'771355226\', u\'links\': {u\'alternate\': u\'http://www.rottentomatoes.com/m/22_jump_street/\', u\'cast\': u\'http://api.rottentomatoes.com/api/public/v1.0/movies/771355226/cast.json\', u\'reviews\': u\'http://api.rottentomatoes.com/api/public/v1.0/movies/771355226/reviews.json\', u\'self\': u\'http://api.rottentomatoes.com/api/public/v1.0/movies/771355226.json\', u\'similar\': u\'http://api.rottentomatoes.com/api/public/v1.0/movies/771355226/similar.json\'}, u\'mpaa_rating\': u\'R\', u\'posters\': {u\'detailed\': u\'http://content8.flixster.com/movie/11/17/85/11178534_tmb.jpg\', u\'original\': u\'http://content8.flixster.com/movie/11/17/85/11178534_tmb.jpg\', u\'profile\': u\'http://content8.flixster.com/movie/11/17/85/11178534_tmb.jpg\', u\'thumbnail\': u\'http://content8.flixster.com/movie/11/17/85/11178534_tmb.jpg\'}, u\'ratings\': {u\'audience_rating\': u\'Upright\', u\'audience_score\': 85, u\'critics_rating\': u\'Certified Fresh\', u\'critics_score\': 85}, u\'release_dates\': {u\'theater\': u\'2014-06-13\'}, u\'runtime\': 110, ...}, {u\'abridged_cast\': [{u\'characters\': [u\'Maleficent\'], u\'id\': u\'162652626\', u\'name\': u\'Angelina Jolie\'}, {u\'characters\': [u\'Stefan\'], u\'id\': u\'770674319\', u\'name\': u\'Sharlto Copley\'}, {u\'characters\': [u\'Princess Aurora\'], u\'id\': u\'528361349\', u\'name\': u\'Elle Fanning\'}, {u\'characters\': [u\'Diaval\'], u\'id\': u\'770673828\', u\'name\': u\'Sam Riley\'}, {u\'characters\': [u\'Knotgrass\'], u\'id\': u\'162693364\', u\'name\': u\'Imelda Staunton\'}], u\'alternate_ids\': {u\'imdb\': u\'1587310\'}, u\'critics_consensus\': u\'\', u\'id\': u\'771304593\', u\'links\': {u\'alternate\': u\'http://www.rottentomatoes.com/m/maleficent_2014/\', u\'cast\': u\'http://api.rottentomatoes.com/api/public/v1.0/movies/771304593/cast.json\', u\'reviews\': u\'http://api.rottentomatoes.com/api/public/v1.0/movies/771304593/reviews.json\', u\'self\': u\'http://api.rottentomatoes.com/api/public/v1.0/movies/771304593.json\', u\'similar\': u\'http://api.rottentomatoes.com/api/public/v1.0/movies/771304593/similar.json\'}, u\'mpaa_rating\': u\'PG\', u\'posters\': {u\'detailed\': u\'http://content8.flixster.com/movie/11/17/67/11176742_tmb.jpg\', u\'original\': u\'http://content8.flixster.com/movie/11/17/67/11176742_tmb.jpg\', u\'profile\': u\'http://content8.flixster.com/movie/11/17/67/11176742_tmb.jpg\', u\'thumbnail\': u\'http://content8.flixster.com/movie/11/17/67/11176742_tmb.jpg\'}, u\'ratings\': {u\'audience_rating\': u\'Upright\', u\'audience_score\': 75, u\'critics_rating\': u\'Rotten\', u\'critics_score\': 49}, u\'release_dates\': {u\'theater\': u\'2014-05-30\'}, u\'runtime\': 97, ...}, {u\'abridged_cast\': [{u\'characters\': [u\'Frankie Valli\'], u\'id\': u\'770849656\', u\'name\': u\'John Lloyd Young\'}, {u\'characters\': [u\'Bob Gaudio\'], u\'id\': u\'771442741\', u\'name\': u\'Erich Bergen\'}, {u\'characters\': [u\'Nick Massi\'], u\'id\': u\'771494359\', u\'name\': u\'Michael Lomenda\'}, {u\'characters\': [u\'Tommy DeVito\'], u\'id\': u\'528367113\', u\'name\': u\'Vincent Piazza\'}, {u\'characters\': [u\'Angelo "Gyp" DeCarlo\'], u\'id\': u\'162652837\', u\'name\': u\'Christopher Walken\'}], u\'alternate_ids\': {u\'imdb\': u\'1742044\'}, u\'critics_consensus\': u\'\', u\'id\': u\'771361033\', u\'links\': {u\'alternate\': u\'http://www.rottentomatoes.com/m/jersey_boys/\', u\'cast\': u\'http://api.rottentomatoes.com/api/public/v1.0/movies/771361033/cast.json\', u\'reviews\': u\'http://api.rottentomatoes.com/api/public/v1.0/movies/771361033/reviews.json\', u\'self\': u\'http://api.rottentomatoes.com/api/public/v1.0/movies/771361033.json\', u\'similar\': u\'http://api.rottentomatoes.com/api/public/v1.0/movies/771361033/similar.json\'}, u\'mpaa_rating\': u\'R\', u\'posters\': {u\'detailed\': u\'http://content6.flixster.com/movie/11/17/75/11177548_tmb.jpg\', u\'original\': u\'http://content6.flixster.com/movie/11/17/75/11177548_tmb.jpg\', u\'profile\': u\'http://content6.flixster.com/movie/11/17/75/11177548_tmb.jpg\', u\'thumbnail\': u\'http://content6.flixster.com/movie/11/17/75/11177548_tmb.jpg\'}, u\'ratings\': {u\'audience_rating\': u\'Upright\', u\'audience_score\': 69, u\'critics_rating\': u\'Rotten\', u\'critics_score\': 54}, u\'release_dates\': {u\'theater\': u\'2014-06-20\'}, u\'runtime\': 134, ...}, {u\'abridged_cast\': [{u\'characters\': [u\'Isaac\'], u\'id\': u\'162652628\', u\'name\': u\'Adam Brody\'}, {u\'characters\': [u\'Dominic\'], u\'id\': u\'162713769\', u\'name\': u\'Michael Ealy\'}, {u\'characters\': [u\'Jeremy\'], u\'id\': u\'364659706\', u\'name\': u\'Jerry Ferrara\'}, {u\'characters\': [u\'Mya\'], u\'id\': u\'162654101\', u\'name\': u\'Meagan Good\'}, {u\'characters\': [u\'Candace\'], u\'id\': u\'162667054\', u\'name\': u\'Regina Hall\'}], u\'alternate_ids\': {u\'imdb\': u\'2239832\'}, u\'critics_consensus\': u\'\', u\'id\': u\'771358910\', u\'links\': {u\'alternate\': u\'http://www.rottentomatoes.com/m/think_like_a_man_too/\', u\'cast\': u\'http://api.rottentomatoes.com/api/public/v1.0/movies/771358910/cast.json\', u\'reviews\': u\'http://api.rottentomatoes.com/api/public/v1.0/movies/771358910/reviews.json\', u\'self\': u\'http://api.rottentomatoes.com/api/public/v1.0/movies/771358910.json\', u\'similar\': u\'http://api.rottentomatoes.com/api/public/v1.0/movies/771358910/similar.json\'}, u\'mpaa_rating\': u\'PG-13\', u\'posters\': {u\'detailed\': u\'http://content9.flixster.com/movie/11/17/63/11176335_tmb.jpg\', u\'original\': u\'http://content9.flixster.com/movie/11/17/63/11176335_tmb.jpg\', u\'profile\': u\'http://content9.flixster.com/movie/11/17/63/11176335_tmb.jpg\', u\'thumbnail\': u\'http://content9.flixster.com/movie/11/17/63/11176335_tmb.jpg\'}, u\'ratings\': {u\'audience_rating\': u\'Upright\', u\'audience_score\': 69, u\'critics_rating\': u\'Rotten\', u\'critics_score\': 24}, u\'release_dates\': {u\'theater\': u\'2014-06-20\'}, u\'runtime\': 106, ...}, {u\'abridged_cast\': [{u\'id\': u\'771496108\', u\'name\': u\'Russell W. Reed\'}, {u\'id\': u\'771496109\', u\'name\': u\'John Koopman\'}, {u\'id\': u\'771496110\', u\'name\': u\'Tina Fortune\'}], u\'alternate_ids\': {u\'imdb\': u\'2785390\'}, u\'id\': u\'771380720\', u\'links\': {u\'alternate\': u\'http://www.rottentomatoes.com/m/america_imagine_a_world_without_her/\', u\'cast\': u\'http://api.rottentomatoes.com/api/public/v1.0/movies/771380720/cast.json\', u\'reviews\': u\'http://api.rottentomatoes.com/api/public/v1.0/movies/771380720/reviews.json\', u\'self\': u\'http://api.rottentomatoes.com/api/public/v1.0/movies/771380720.json\', u\'similar\': u\'http://api.rottentomatoes.com/api/public/v1.0/movies/771380720/similar.json\'}, u\'mpaa_rating\': u\'PG-13\', u\'posters\': {u\'detailed\': u\'http://content9.flixster.com/movie/11/17/88/11178859_tmb.png\', u\'original\': u\'http://content9.flixster.com/movie/11/17/88/11178859_tmb.png\', u\'profile\': u\'http://content9.flixster.com/movie/11/17/88/11178859_tmb.png\', u\'thumbnail\': u\'http://content9.flixster.com/movie/11/17/88/11178859_tmb.png\'}, u\'ratings\': {u\'audience_rating\': u\'Upright\', u\'audience_score\': 90, u\'critics_rating\': u\'Rotten\', u\'critics_score\': 10}, u\'release_dates\': {u\'theater\': u\'2014-07-02\'}, u\'runtime\': 103, u\'synopsis\': u\'Someone once observed: "America is great becau... people of their "fair share". (c) Official Site\', ...}, {u\'abridged_cast\': [{u\'characters\': [u\'Major William Cage\'], u\'id\': u\'162652763\', u\'name\': u\'Tom Cruise\'}, {u\'characters\': [u\'Rita Vrataski\'], u\'id\': u\'162685827\', u\'name\': u\'Emily Blunt\'}, {u\'characters\': [u\'Master Sergeant Farell\'], u\'id\': u\'162654226\', u\'name\': u\'Bill Paxton\'}, {u\'characters\': [u\'Skinner\'], u\'id\': u\'770796908\', u\'name\': u\'Jonas Armstrong\'}, {u\'characters\': [u\'Kimmel\'], u\'id\': u\'770853907\', u\'name\': u\'Tony Way\'}], u\'alternate_ids\': {u\'imdb\': u\'1631867\'}, u\'critics_consensus\': u\'\', u\'id\': u\'771317257\', u\'links\': {u\'alternate\': u\'http://www.rottentomatoes.com/m/edge_of_tomorrow/\', u\'cast\': u\'http://api.rottentomatoes.com/api/public/v1.0/movies/771317257/cast.json\', u\'reviews\': u\'http://api.rottentomatoes.com/api/public/v1.0/movies/771317257/reviews.json\', u\'self\': u\'http://api.rottentomatoes.com/api/public/v1.0/movies/771317257.json\', u\'similar\': u\'http://api.rottentomatoes.com/api/public/v1.0/movies/771317257/similar.json\'}, u\'mpaa_rating\': u\'PG-13\', u\'posters\': {u\'detailed\': u\'http://content8.flixster.com/movie/11/17/87/11178706_tmb.jpg\', u\'original\': u\'http://content8.flixster.com/movie/11/17/87/11178706_tmb.jpg\', u\'profile\': u\'http://content8.flixster.com/movie/11/17/87/11178706_tmb.jpg\', u\'thumbnail\': u\'http://content8.flixster.com/movie/11/17/87/11178706_tmb.jpg\'}, u\'ratings\': {u\'audience_rating\': u\'Upright\', u\'audience_score\': 92, u\'critics_rating\': u\'Certified Fresh\', u\'critics_score\': 90}, u\'release_dates\': {u\'theater\': u\'2014-06-06\'}, u\'runtime\': 113, ...}, {u\'abridged_cast\': [{u\'characters\': [u\'Hazel\'], u\'id\': u\'770676364\', u\'name\': u\'Shailene Woodley\'}, {u\'characters\': [u\'Gus\'], u\'id\': u\'771409061\', u\'name\': u\'Ansel Elgort\'}, {u\'characters\': [u\'Van Houten\'], u\'id\': u\'162668400\', u\'name\': u\'Willem Dafoe\'}, {u\'characters\': [u\'Isaac\'], u\'id\': u\'459518388\', u\'name\': u\'Nat Wolff\'}, {u\'characters\': [u\'Frannie\'], u\'id\': u\'162654251\', u\'name\': u\'Laura Dern\'}], u\'alternate_ids\': {u\'imdb\': u\'2582846\'}, u\'critics_consensus\': u\'\', u\'id\': u\'771365948\', u\'links\': {u\'alternate\': u\'http://www.rottentomatoes.com/m/the_fault_in_our_stars/\', u\'cast\': u\'http://api.rottentomatoes.com/api/public/v1.0/movies/771365948/cast.json\', u\'reviews\': u\'http://api.rottentomatoes.com/api/public/v1.0/movies/771365948/reviews.json\', u\'self\': u\'http://api.rottentomatoes.com/api/public/v1.0/movies/771365948.json\', u\'similar\': u\'http://api.rottentomatoes.com/api/public/v1.0/movies/771365948/similar.json\'}, u\'mpaa_rating\': u\'PG-13\', u\'posters\': {u\'detailed\': u\'http://content6.flixster.com/movie/11/17/61/11176136_tmb.jpg\', u\'original\': u\'http://content6.flixster.com/movie/11/17/61/11176136_tmb.jpg\', u\'profile\': u\'http://content6.flixster.com/movie/11/17/61/11176136_tmb.jpg\', u\'thumbnail\': u\'http://content6.flixster.com/movie/11/17/61/11176136_tmb.jpg\'}, u\'ratings\': {u\'audience_rating\': u\'Upright\', u\'audience_score\': 90, u\'critics_rating\': u\'Certified Fresh\', u\'critics_score\': 80}, u\'release_dates\': {u\'theater\': u\'2014-06-06\'}, u\'runtime\': 125, ...}, {u\'abridged_cast\': [{u\'characters\': [u\'Gretta\'], u\'id\': u\'162654560\', u\'name\': u\'Keira Knightley\'}, {u\'characters\': [u\'Dan\'], u\'id\': u\'162653904\', u\'name\': u\'Mark Ruffalo\'}, {u\'characters\': [u\'Dave\'], u\'id\': u\'771263127\', u\'name\': u\'Adam Levine\'}, {u\'characters\': [u\'Miriam\'], u\'id\': u\'162652281\', u\'name\': u\'Catherine Keener\'}, {u\'characters\': [u\'Steve\'], u\'id\': u\'405587980\', u\'name\': u\'James Corden\'}], u\'alternate_ids\': {u\'imdb\': u\'1980929\'}, u\'critics_consensus\': u\'\', u\'id\': u\'771362035\', u\'links\': {u\'alternate\': u\'http://www.rottentomatoes.com/m/begin_again_2013/\', u\'cast\': u\'http://api.rottentomatoes.com/api/public/v1.0/movies/771362035/cast.json\', u\'reviews\': u\'http://api.rottentomatoes.com/api/public/v1.0/movies/771362035/reviews.json\', u\'self\': u\'http://api.rottentomatoes.com/api/public/v1.0/movies/771362035.json\', u\'similar\': u\'http://api.rottentomatoes.com/api/public/v1.0/movies/771362035/similar.json\'}, u\'mpaa_rating\': u\'R\', u\'posters\': {u\'detailed\': u\'http://content8.flixster.com/movie/11/17/87/11178758_tmb.jpg\', u\'original\': u\'http://content8.flixster.com/movie/11/17/87/11178758_tmb.jpg\', u\'profile\': u\'http://content8.flixster.com/movie/11/17/87/11178758_tmb.jpg\', u\'thumbnail\': u\'http://content8.flixster.com/movie/11/17/87/11178758_tmb.jpg\'}, u\'ratings\': {u\'audience_rating\': u\'Upright\', u\'audience_score\': 85, u\'critics_rating\': u\'Certified Fresh\', u\'critics_score\': 80}, u\'release_dates\': {u\'theater\': u\'2014-06-27\'}, u\'runtime\': 101, ...}, {u\'abridged_cast\': [{u\'characters\': [u\'Carl Casper\'], u\'id\': u\'162655175\', u\'name\': u\'Jon Favreau\'}, {u\'characters\': [u\'Inez\'], u\'id\': u\'162653186\', u\'name\': u\'Sofia Vergara\'}, {u\'characters\': [u\'Martin\'], u\'id\': u\'162652698\', u\'name\': u\'John Leguizamo\'}, {u\'characters\': [u\'Tony\'], u\'id\': u\'162685850\', u\'name\': u\'Bobby Cannavale\'}, {u\'characters\': [u\'Riva\'], u\'id\': u\'162659372\', u\'name\': u\'Dustin Hoffman\'}], u\'alternate_ids\': {u\'imdb\': u\'2883512\'}, u\'critics_consensus\': u\'\', u\'id\': u\'771357104\', u\'links\': {u\'alternate\': u\'http://www.rottentomatoes.com/m/chef_2014/\', u\'cast\': u\'http://api.rottentomatoes.com/api/public/v1.0/movies/771357104/cast.json\', u\'reviews\': u\'http://api.rottentomatoes.com/api/public/v1.0/movies/771357104/reviews.json\', u\'self\': u\'http://api.rottentomatoes.com/api/public/v1.0/movies/771357104.json\', u\'similar\': u\'http://api.rottentomatoes.com/api/public/v1.0/movies/771357104/similar.json\'}, u\'mpaa_rating\': u\'R\', u\'posters\': {u\'detailed\': u\'http://content9.flixster.com/movie/11/17/72/11177251_tmb.jpg\', u\'original\': u\'http://content9.flixster.com/movie/11/17/72/11177251_tmb.jpg\', u\'profile\': u\'http://content9.flixster.com/movie/11/17/72/11177251_tmb.jpg\', u\'thumbnail\': u\'http://content9.flixster.com/movie/11/17/72/11177251_tmb.jpg\'}, u\'ratings\': {u\'audience_rating\': u\'Upright\', u\'audience_score\': 89, u\'critics_rating\': u\'Certified Fresh\', u\'critics_score\': 88}, u\'release_dates\': {u\'theater\': u\'2014-05-09\'}, u\'runtime\': 115, ...}, {u\'abridged_cast\': [{u\'characters\': [u\'Charles Xavier/Professor X\'], u\'id\': u\'162714854\', u\'name\': u\'James McAvoy\'}, {u\'characters\': [u\'Erik Lensherr/Magneto\'], u\'id\': u\'364641814\', u\'name\': u\'Michael Fassbender\'}, {u\'characters\': [u\'Mystique/Raven\', u\'Raven\'], u\'id\': u\'770800260\', u\'name\': u\'Jennifer Lawrence\'}, {u\'characters\': [u\'Charles Xavier/Professor X\'], u\'id\': u\'162664301\', u\'name\': u\'Patrick Stewart\'}, {u\'characters\': [u\'Erik Lensherr/Magneto\'], u\'id\': u\'162653241\', u\'name\': u\'Ian McKellen\'}], u\'alternate_ids\': {u\'imdb\': u\'1877832\'}, u\'critics_consensus\': u\'\', u\'id\': u\'771308692\', u\'links\': {u\'alternate\': u\'http://www.rottentomatoes.com/m/x_men_days_of_future_past/\', u\'cast\': u\'http://api.rottentomatoes.com/api/public/v1.0/movies/771308692/cast.json\', u\'reviews\': u\'http://api.rottentomatoes.com/api/public/v1.0/movies/771308692/reviews.json\', u\'self\': u\'http://api.rottentomatoes.com/api/public/v1.0/movies/771308692.json\', u\'similar\': u\'http://api.rottentomatoes.com/api/public/v1.0/movies/771308692/similar.json\'}, u\'mpaa_rating\': u\'PG-13\', u\'posters\': {u\'detailed\': u\'http://content7.flixster.com/movie/11/17/70/11177049_tmb.jpg\', u\'original\': u\'http://content7.flixster.com/movie/11/17/70/11177049_tmb.jpg\', u\'profile\': u\'http://content7.flixster.com/movie/11/17/70/11177049_tmb.jpg\', u\'thumbnail\': u\'http://content7.flixster.com/movie/11/17/70/11177049_tmb.jpg\'}, u\'ratings\': {u\'audience_rating\': u\'Upright\', u\'audience_score\': 93, u\'critics_rating\': u\'Certified Fresh\', u\'critics_score\': 92}, u\'release_dates\': {u\'theater\': u\'2014-05-23\'}, u\'runtime\': 131, ...}, {u\'abridged_cast\': [{u\'characters\': [u\'Curtis\'], u\'id\': u\'162652784\', u\'name\': u\'Chris Evans\'}, {u\'characters\': [u\'Namgoong Minsu\'], u\'id\': u\'162653439\', u\'name\': u\'Song Kang-ho\'}, {u\'characters\': [u\'Edgar\'], u\'id\': u\'162653082\', u\'name\': u\'Jamie Bell\'}, {u\'characters\': [u\'Gilliam\'], u\'id\': u\'162653221\', u\'name\': u\'John Hurt\'}, {u\'characters\': [u\'Mason\'], u\'id\': u\'162654047\', u\'name\': u\'Tilda Swinton\'}], u\'alternate_ids\': {u\'imdb\': u\'1706620\'}, u\'critics_consensus\': u\'\', u\'id\': u\'771339986\', u\'links\': {u\'alternate\': u\'http://www.rottentomatoes.com/m/snowpiercer/\', u\'cast\': u\'http://api.rottentomatoes.com/api/public/v1.0/movies/771339986/cast.json\', u\'reviews\': u\'http://api.rottentomatoes.com/api/public/v1.0/movies/771339986/reviews.json\', u\'self\': u\'http://api.rottentomatoes.com/api/public/v1.0/movies/771339986.json\', u\'similar\': u\'http://api.rottentomatoes.com/api/public/v1.0/movies/771339986/similar.json\'}, u\'mpaa_rating\': u\'R\', u\'posters\': {u\'detailed\': u\'http://content8.flixster.com/movie/11/17/86/11178618_tmb.jpg\', u\'original\': u\'http://content8.flixster.com/movie/11/17/86/11178618_tmb.jpg\', u\'profile\': u\'http://content8.flixster.com/movie/11/17/86/11178618_tmb.jpg\', u\'thumbnail\': u\'http://content8.flixster.com/movie/11/17/86/11178618_tmb.jpg\'}, u\'ratings\': {u\'audience_rating\': u\'Upright\', u\'audience_score\': 77, u\'critics_rating\': u\'Certified Fresh\', u\'critics_score\': 94}, u\'release_dates\': {u\'theater\': u\'2014-06-27\'}, u\'runtime\': 126, ...}]'
p164
sS'KEY'
p165
S"'uz7wfv82dhxwdwg7h3bme45u'"
p166
sg2
S'{u\'link_template\': u\'http://api.rottentomatoes.com/api/public/v1.0/..._page}&page={page_number}&country={country-code}\', u\'links\': {u\'alternate\': u\'http://www.rottentomatoes.com/movie/in_theaters\', u\'next\': u\'http://api.rottentomatoes.com/api/public/v1.0/...in_theaters.json?page_limit=16&country=us&page=2\', u\'self\': u\'http://api.rottentomatoes.com/api/public/v1.0/...in_theaters.json?page_limit=16&country=us&page=1\'}, u\'movies\': [{u\'abridged_cast\': [{u\'characters\': [u\'Cade Yeager\'], u\'id\': u\'162653181\', u\'name\': u\'Mark Wahlberg\'}, {u\'characters\': [u\'Shane Dyson\'], u\'id\': u\'771403543\', u\'name\': u\'Jack Reynor\'}, {u\'characters\': [u\'Tessa Yeager\'], u\'id\': u\'770833458\', u\'name\': u\'Nicola Peltz\'}, {u\'characters\': [u\'Joshua Joyce\'], u\'id\': u\'162661152\', u\'name\': u\'Stanley Tucci\'}, {u\'characters\': [u"Joshua\'s Assistant"], u\'id\': u\'771407347\', u\'name\': u\'Abigail Klein\'}], u\'alternate_ids\': {u\'imdb\': u\'2109248\'}, u\'critics_consensus\': u\'\', u\'id\': u\'771269858\', u\'links\': {u\'alternate\': u\'http://www.rottentomatoes.com/m/transformers_age_of_extinction/\', u\'cast\': u\'http://api.rottentomatoes.com/api/public/v1.0/movies/771269858/cast.json\', u\'reviews\': u\'http://api.rottentomatoes.com/api/public/v1.0/movies/771269858/reviews.json\', u\'self\': u\'http://api.rottentomatoes.com/api/public/v1.0/movies/771269858.json\', u\'similar\': u\'http://api.rottentomatoes.com/api/public/v1.0/movies/771269858/similar.json\'}, u\'mpaa_rating\': u\'PG-13\', u\'posters\': {u\'detailed\': u\'http://content9.flixster.com/movie/11/17/81/11178175_tmb.png\', u\'original\': u\'http://content9.flixster.com/movie/11/17/81/11178175_tmb.png\', u\'profile\': u\'http://content9.flixster.com/movie/11/17/81/11178175_tmb.png\', u\'thumbnail\': u\'http://content9.flixster.com/movie/11/17/81/11178175_tmb.png\'}, u\'ratings\': {u\'audience_rating\': u\'Spilled\', u\'audience_score\': 57, u\'critics_rating\': u\'Rotten\', u\'critics_score\': 17}, u\'release_dates\': {u\'theater\': u\'2014-06-27\'}, u\'runtime\': 157, ...}, {u\'abridged_cast\': [{u\'characters\': [u\'Tammy\'], u\'id\': u\'528361348\', u\'name\': u\'Melissa McCarthy\'}, {u\'characters\': [u\'Pearl\'], u\'id\': u\'162654579\', u\'name\': u\'Susan Sarandon\'}, {u\'characters\': [u\'Lenore\'], u\'id\': u\'162660148\', u\'name\': u\'Kathy Bates\'}, {u\'characters\': [u\'Bobby\'], u\'id\': u\'388618670\', u\'name\': u\'Mark Duplass\'}, {u\'characters\': [u\'Don\'], u\'id\': u\'162664389\', u\'name\': u\'Dan Aykroyd\'}], u\'alternate_ids\': {u\'imdb\': u\'2103254\'}, u\'critics_consensus\': u\'\', u\'id\': u\'771355411\', u\'links\': {u\'alternate\': u\'http://www.rottentomatoes.com/m/tammy_2014/\', u\'cast\': u\'http://api.rottentomatoes.com/api/public/v1.0/movies/771355411/cast.json\', u\'reviews\': u\'http://api.rottentomatoes.com/api/public/v1.0/movies/771355411/reviews.json\', u\'self\': u\'http://api.rottentomatoes.com/api/public/v1.0/movies/771355411.json\', u\'similar\': u\'http://api.rottentomatoes.com/api/public/v1.0/movies/771355411/similar.json\'}, u\'mpaa_rating\': u\'R\', u\'posters\': {u\'detailed\': u\'http://content7.flixster.com/movie/11/17/90/11179013_tmb.jpg\', u\'original\': u\'http://content7.flixster.com/movie/11/17/90/11179013_tmb.jpg\', u\'profile\': u\'http://content7.flixster.com/movie/11/17/90/11179013_tmb.jpg\', u\'thumbnail\': u\'http://content7.flixster.com/movie/11/17/90/11179013_tmb.jpg\'}, u\'ratings\': {u\'audience_rating\': u\'Spilled\', u\'audience_score\': 43, u\'critics_rating\': u\'Rotten\', u\'critics_score\': 23}, u\'release_dates\': {u\'theater\': u\'2014-07-02\'}, u\'runtime\': 96, ...}, {u\'abridged_cast\': [{u\'characters\': [u\'Alex\'], u\'id\': u\'771452922\', u\'name\': u\'Teo Halm\'}, {u\'characters\': [u\'Tuck\'], u\'id\': u\'770769927\', u\'name\': u\'Astro\'}, {u\'characters\': [u\'Emma\'], u\'id\': u\'771483962\', u\'name\': u\'Ella Linnea Wahlestedt\'}, {u\'characters\': [u\'Munch\'], u\'id\': u\'771452923\', u\'name\': u\'Reese C. Hartwig\'}, {u\'characters\': [u\'Dr. Lawrence Madsen\'], u\'id\': u\'479129525\', u\'name\': u\'Jason Gray-Stanford\'}], u\'alternate_ids\': {u\'imdb\': u\'2183034\'}, u\'critics_consensus\': u\'\', u\'id\': u\'771356653\', u\'links\': {u\'alternate\': u\'http://www.rottentomatoes.com/m/earth_to_echo/\', u\'cast\': u\'http://api.rottentomatoes.com/api/public/v1.0/movies/771356653/cast.json\', u\'reviews\': u\'http://api.rottentomatoes.com/api/public/v1.0/movies/771356653/reviews.json\', u\'self\': u\'http://api.rottentomatoes.com/api/public/v1.0/movies/771356653.json\', u\'similar\': u\'http://api.rottentomatoes.com/api/public/v1.0/movies/771356653/similar.json\'}, u\'mpaa_rating\': u\'PG\', u\'posters\': {u\'detailed\': u\'http://content6.flixster.com/movie/11/17/80/11178084_tmb.jpg\', u\'original\': u\'http://content6.flixster.com/movie/11/17/80/11178084_tmb.jpg\', u\'profile\': u\'http://content6.flixster.com/movie/11/17/80/11178084_tmb.jpg\', u\'thumbnail\': u\'http://content6.flixster.com/movie/11/17/80/11178084_tmb.jpg\'}, u\'ratings\': {u\'audience_rating\': u\'Spilled\', u\'audience_score\': 52, u\'critics_rating\': u\'Rotten\', u\'critics_score\': 48}, u\'release_dates\': {u\'theater\': u\'2014-07-02\'}, u\'runtime\': 89, ...}, {u\'abridged_cast\': [{u\'characters\': [u\'Hiccup\'], u\'id\': u\'259260120\', u\'name\': u\'Jay Baruchel\'}, {u\'characters\': [u\'Stoick\'], u\'id\': u\'162659102\', u\'name\': u\'Gerard Butler\'}, {u\'characters\': [u\'Astrid\'], u\'id\': u\'162652611\', u\'name\': u\'America Ferrera\'}, {u\'characters\': [u\'Snotlout\'], u\'id\': u\'326297850\', u\'name\': u\'Jonah Hill\'}, {u\'characters\': [u\'Fishlegs\'], u\'id\': u\'770679139\', u\'name\': u\'Christopher Mintz-Plasse\'}], u\'alternate_ids\': {u\'imdb\': u\'1646971\'}, u\'critics_consensus\': u\'\', u\'id\': u\'771040382\', u\'links\': {u\'alternate\': u\'http://www.rottentomatoes.com/m/how_to_train_your_dragon_2/\', u\'cast\': u\'http://api.rottentomatoes.com/api/public/v1.0/movies/771040382/cast.json\', u\'reviews\': u\'http://api.rottentomatoes.com/api/public/v1.0/movies/771040382/reviews.json\', u\'self\': u\'http://api.rottentomatoes.com/api/public/v1.0/movies/771040382.json\', u\'similar\': u\'http://api.rottentomatoes.com/api/public/v1.0/movies/771040382/similar.json\'}, u\'mpaa_rating\': u\'PG\', u\'posters\': {u\'detailed\': u\'http://content6.flixster.com/movie/11/17/84/11178428_tmb.jpg\', u\'original\': u\'http://content6.flixster.com/movie/11/17/84/11178428_tmb.jpg\', u\'profile\': u\'http://content6.flixster.com/movie/11/17/84/11178428_tmb.jpg\', u\'thumbnail\': u\'http://content6.flixster.com/movie/11/17/84/11178428_tmb.jpg\'}, u\'ratings\': {u\'audience_rating\': u\'Upright\', u\'audience_score\': 93, u\'critics_rating\': u\'Certified Fresh\', u\'critics_score\': 92}, u\'release_dates\': {u\'dvd\': u\'2014-12-11\', u\'theater\': u\'2014-06-13\'}, u\'runtime\': 105, ...}, {u\'abridged_cast\': [{u\'characters\': [u\'Sarchie\'], u\'id\': u\'162662190\', u\'name\': u\'Eric Bana\'}, {u\'characters\': [u\'Mendoza\'], u\'id\': u\'770669707\', u\'name\': u\'Edgar Ramirez\'}, {u\'characters\': [u\'Jen\'], u\'id\': u\'770797421\', u\'name\': u\'Olivia Munn\'}, {u\'characters\': [u\'Santino\'], u\'id\': u\'162653243\', u\'name\': u\'Sean Harris\'}, {u\'characters\': [u\'Butler\'], u\'id\': u\'770792384\', u\'name\': u\'Joel McHale\'}], u\'alternate_ids\': {u\'imdb\': u\'2377322\'}, u\'critics_consensus\': u\'\', u\'id\': u\'771371567\', u\'links\': {u\'alternate\': u\'http://www.rottentomatoes.com/m/deliver_us_from_evil_2014/\', u\'cast\': u\'http://api.rottentomatoes.com/api/public/v1.0/movies/771371567/cast.json\', u\'reviews\': u\'http://api.rottentomatoes.com/api/public/v1.0/movies/771371567/reviews.json\', u\'self\': u\'http://api.rottentomatoes.com/api/public/v1.0/movies/771371567.json\', u\'similar\': u\'http://api.rottentomatoes.com/api/public/v1.0/movies/771371567/similar.json\'}, u\'mpaa_rating\': u\'R\', u\'posters\': {u\'detailed\': u\'http://content9.flixster.com/movie/11/17/84/11178479_tmb.jpg\', u\'original\': u\'http://content9.flixster.com/movie/11/17/84/11178479_tmb.jpg\', u\'profile\': u\'http://content9.flixster.com/movie/11/17/84/11178479_tmb.jpg\', u\'thumbnail\': u\'http://content9.flixster.com/movie/11/17/84/11178479_tmb.jpg\'}, u\'ratings\': {u\'audience_rating\': u\'Spilled\', u\'audience_score\': 48, u\'critics_rating\': u\'Rotten\', u\'critics_score\': 30}, u\'release_dates\': {u\'theater\': u\'2014-07-02\'}, u\'runtime\': 118, ...}, {u\'abridged_cast\': [{u\'characters\': [u\'Schmidt\'], u\'id\': u\'326297850\', u\'name\': u\'Jonah Hill\'}, {u\'characters\': [u\'Jenko\'], u\'id\': u\'162661835\', u\'name\': u\'Channing Tatum\'}, {u\'characters\': [u\'The Ghost\'], u\'id\': u\'162725032\', u\'name\': u\'Peter Stormare\'}, {u\'characters\': [u\'Captain Dickson\'], u\'id\': u\'162652332\', u\'name\': u\'Ice Cube\'}, {u\'characters\': [u\'Maya\'], u\'id\': u\'770793901\', u\'name\': u\'Amber Stevens\'}], u\'alternate_ids\': {u\'imdb\': u\'2294449\'}, u\'critics_consensus\': u\'\', u\'id\': u\'771355226\', u\'links\': {u\'alternate\': u\'http://www.rottentomatoes.com/m/22_jump_street/\', u\'cast\': u\'http://api.rottentomatoes.com/api/public/v1.0/movies/771355226/cast.json\', u\'reviews\': u\'http://api.rottentomatoes.com/api/public/v1.0/movies/771355226/reviews.json\', u\'self\': u\'http://api.rottentomatoes.com/api/public/v1.0/movies/771355226.json\', u\'similar\': u\'http://api.rottentomatoes.com/api/public/v1.0/movies/771355226/similar.json\'}, u\'mpaa_rating\': u\'R\', u\'posters\': {u\'detailed\': u\'http://content8.flixster.com/movie/11/17/85/11178534_tmb.jpg\', u\'original\': u\'http://content8.flixster.com/movie/11/17/85/11178534_tmb.jpg\', u\'profile\': u\'http://content8.flixster.com/movie/11/17/85/11178534_tmb.jpg\', u\'thumbnail\': u\'http://content8.flixster.com/movie/11/17/85/11178534_tmb.jpg\'}, u\'ratings\': {u\'audience_rating\': u\'Upright\', u\'audience_score\': 85, u\'critics_rating\': u\'Certified Fresh\', u\'critics_score\': 85}, u\'release_dates\': {u\'theater\': u\'2014-06-13\'}, u\'runtime\': 110, ...}, {u\'abridged_cast\': [{u\'characters\': [u\'Maleficent\'], u\'id\': u\'162652626\', u\'name\': u\'Angelina Jolie\'}, {u\'characters\': [u\'Stefan\'], u\'id\': u\'770674319\', u\'name\': u\'Sharlto Copley\'}, {u\'characters\': [u\'Princess Aurora\'], u\'id\': u\'528361349\', u\'name\': u\'Elle Fanning\'}, {u\'characters\': [u\'Diaval\'], u\'id\': u\'770673828\', u\'name\': u\'Sam Riley\'}, {u\'characters\': [u\'Knotgrass\'], u\'id\': u\'162693364\', u\'name\': u\'Imelda Staunton\'}], u\'alternate_ids\': {u\'imdb\': u\'1587310\'}, u\'critics_consensus\': u\'\', u\'id\': u\'771304593\', u\'links\': {u\'alternate\': u\'http://www.rottentomatoes.com/m/maleficent_2014/\', u\'cast\': u\'http://api.rottentomatoes.com/api/public/v1.0/movies/771304593/cast.json\', u\'reviews\': u\'http://api.rottentomatoes.com/api/public/v1.0/movies/771304593/reviews.json\', u\'self\': u\'http://api.rottentomatoes.com/api/public/v1.0/movies/771304593.json\', u\'similar\': u\'http://api.rottentomatoes.com/api/public/v1.0/movies/771304593/similar.json\'}, u\'mpaa_rating\': u\'PG\', u\'posters\': {u\'detailed\': u\'http://content8.flixster.com/movie/11/17/67/11176742_tmb.jpg\', u\'original\': u\'http://content8.flixster.com/movie/11/17/67/11176742_tmb.jpg\', u\'profile\': u\'http://content8.flixster.com/movie/11/17/67/11176742_tmb.jpg\', u\'thumbnail\': u\'http://content8.flixster.com/movie/11/17/67/11176742_tmb.jpg\'}, u\'ratings\': {u\'audience_rating\': u\'Upright\', u\'audience_score\': 75, u\'critics_rating\': u\'Rotten\', u\'critics_score\': 49}, u\'release_dates\': {u\'theater\': u\'2014-05-30\'}, u\'runtime\': 97, ...}, {u\'abridged_cast\': [{u\'characters\': [u\'Frankie Valli\'], u\'id\': u\'770849656\', u\'name\': u\'John Lloyd Young\'}, {u\'characters\': [u\'Bob Gaudio\'], u\'id\': u\'771442741\', u\'name\': u\'Erich Bergen\'}, {u\'characters\': [u\'Nick Massi\'], u\'id\': u\'771494359\', u\'name\': u\'Michael Lomenda\'}, {u\'characters\': [u\'Tommy DeVito\'], u\'id\': u\'528367113\', u\'name\': u\'Vincent Piazza\'}, {u\'characters\': [u\'Angelo "Gyp" DeCarlo\'], u\'id\': u\'162652837\', u\'name\': u\'Christopher Walken\'}], u\'alternate_ids\': {u\'imdb\': u\'1742044\'}, u\'critics_consensus\': u\'\', u\'id\': u\'771361033\', u\'links\': {u\'alternate\': u\'http://www.rottentomatoes.com/m/jersey_boys/\', u\'cast\': u\'http://api.rottentomatoes.com/api/public/v1.0/movies/771361033/cast.json\', u\'reviews\': u\'http://api.rottentomatoes.com/api/public/v1.0/movies/771361033/reviews.json\', u\'self\': u\'http://api.rottentomatoes.com/api/public/v1.0/movies/771361033.json\', u\'similar\': u\'http://api.rottentomatoes.com/api/public/v1.0/movies/771361033/similar.json\'}, u\'mpaa_rating\': u\'R\', u\'posters\': {u\'detailed\': u\'http://content6.flixster.com/movie/11/17/75/11177548_tmb.jpg\', u\'original\': u\'http://content6.flixster.com/movie/11/17/75/11177548_tmb.jpg\', u\'profile\': u\'http://content6.flixster.com/movie/11/17/75/11177548_tmb.jpg\', u\'thumbnail\': u\'http://content6.flixster.com/movie/11/17/75/11177548_tmb.jpg\'}, u\'ratings\': {u\'audience_rating\': u\'Upright\', u\'audience_score\': 69, u\'critics_rating\': u\'Rotten\', u\'critics_score\': 54}, u\'release_dates\': {u\'theater\': u\'2014-06-20\'}, u\'runtime\': 134, ...}, {u\'abridged_cast\': [{u\'characters\': [u\'Isaac\'], u\'id\': u\'162652628\', u\'name\': u\'Adam Brody\'}, {u\'characters\': [u\'Dominic\'], u\'id\': u\'162713769\', u\'name\': u\'Michael Ealy\'}, {u\'characters\': [u\'Jeremy\'], u\'id\': u\'364659706\', u\'name\': u\'Jerry Ferrara\'}, {u\'characters\': [u\'Mya\'], u\'id\': u\'162654101\', u\'name\': u\'Meagan Good\'}, {u\'characters\': [u\'Candace\'], u\'id\': u\'162667054\', u\'name\': u\'Regina Hall\'}], u\'alternate_ids\': {u\'imdb\': u\'2239832\'}, u\'critics_consensus\': u\'\', u\'id\': u\'771358910\', u\'links\': {u\'alternate\': u\'http://www.rottentomatoes.com/m/think_like_a_man_too/\', u\'cast\': u\'http://api.rottentomatoes.com/api/public/v1.0/movies/771358910/cast.json\', u\'reviews\': u\'http://api.rottentomatoes.com/api/public/v1.0/movies/771358910/reviews.json\', u\'self\': u\'http://api.rottentomatoes.com/api/public/v1.0/movies/771358910.json\', u\'similar\': u\'http://api.rottentomatoes.com/api/public/v1.0/movies/771358910/similar.json\'}, u\'mpaa_rating\': u\'PG-13\', u\'posters\': {u\'detailed\': u\'http://content9.flixster.com/movie/11/17/63/11176335_tmb.jpg\', u\'original\': u\'http://content9.flixster.com/movie/11/17/63/11176335_tmb.jpg\', u\'profile\': u\'http://content9.flixster.com/movie/11/17/63/11176335_tmb.jpg\', u\'thumbnail\': u\'http://content9.flixster.com/movie/11/17/63/11176335_tmb.jpg\'}, u\'ratings\': {u\'audience_rating\': u\'Upright\', u\'audience_score\': 69, u\'critics_rating\': u\'Rotten\', u\'critics_score\': 24}, u\'release_dates\': {u\'theater\': u\'2014-06-20\'}, u\'runtime\': 106, ...}, {u\'abridged_cast\': [{u\'id\': u\'771496108\', u\'name\': u\'Russell W. Reed\'}, {u\'id\': u\'771496109\', u\'name\': u\'John Koopman\'}, {u\'id\': u\'771496110\', u\'name\': u\'Tina Fortune\'}], u\'alternate_ids\': {u\'imdb\': u\'2785390\'}, u\'id\': u\'771380720\', u\'links\': {u\'alternate\': u\'http://www.rottentomatoes.com/m/america_imagine_a_world_without_her/\', u\'cast\': u\'http://api.rottentomatoes.com/api/public/v1.0/movies/771380720/cast.json\', u\'reviews\': u\'http://api.rottentomatoes.com/api/public/v1.0/movies/771380720/reviews.json\', u\'self\': u\'http://api.rottentomatoes.com/api/public/v1.0/movies/771380720.json\', u\'similar\': u\'http://api.rottentomatoes.com/api/public/v1.0/movies/771380720/similar.json\'}, u\'mpaa_rating\': u\'PG-13\', u\'posters\': {u\'detailed\': u\'http://content9.flixster.com/movie/11/17/88/11178859_tmb.png\', u\'original\': u\'http://content9.flixster.com/movie/11/17/88/11178859_tmb.png\', u\'profile\': u\'http://content9.flixster.com/movie/11/17/88/11178859_tmb.png\', u\'thumbnail\': u\'http://content9.flixster.com/movie/11/17/88/11178859_tmb.png\'}, u\'ratings\': {u\'audience_rating\': u\'Upright\', u\'audience_score\': 90, u\'critics_rating\': u\'Rotten\', u\'critics_score\': 10}, u\'release_dates\': {u\'theater\': u\'2014-07-02\'}, u\'runtime\': 103, u\'synopsis\': u\'Someone once observed: "America is great becau... people of their "fair share". (c) Official Site\', ...}, {u\'abridged_cast\': [{u\'characters\': [u\'Major William Cage\'], u\'id\': u\'162652763\', u\'name\': u\'Tom Cruise\'}, {u\'characters\': [u\'Rita Vrataski\'], u\'id\': u\'162685827\', u\'name\': u\'Emily Blunt\'}, {u\'characters\': [u\'Master Sergeant Farell\'], u\'id\': u\'162654226\', u\'name\': u\'Bill Paxton\'}, {u\'characters\': [u\'Skinner\'], u\'id\': u\'770796908\', u\'name\': u\'Jonas Armstrong\'}, {u\'characters\': [u\'Kimmel\'], u\'id\': u\'770853907\', u\'name\': u\'Tony Way\'}], u\'alternate_ids\': {u\'imdb\': u\'1631867\'}, u\'critics_consensus\': u\'\', u\'id\': u\'771317257\', u\'links\': {u\'alternate\': u\'http://www.rottentomatoes.com/m/edge_of_tomorrow/\', u\'cast\': u\'http://api.rottentomatoes.com/api/public/v1.0/movies/771317257/cast.json\', u\'reviews\': u\'http://api.rottentomatoes.com/api/public/v1.0/movies/771317257/reviews.json\', u\'self\': u\'http://api.rottentomatoes.com/api/public/v1.0/movies/771317257.json\', u\'similar\': u\'http://api.rottentomatoes.com/api/public/v1.0/movies/771317257/similar.json\'}, u\'mpaa_rating\': u\'PG-13\', u\'posters\': {u\'detailed\': u\'http://content8.flixster.com/movie/11/17/87/11178706_tmb.jpg\', u\'original\': u\'http://content8.flixster.com/movie/11/17/87/11178706_tmb.jpg\', u\'profile\': u\'http://content8.flixster.com/movie/11/17/87/11178706_tmb.jpg\', u\'thumbnail\': u\'http://content8.flixster.com/movie/11/17/87/11178706_tmb.jpg\'}, u\'ratings\': {u\'audience_rating\': u\'Upright\', u\'audience_score\': 92, u\'critics_rating\': u\'Certified Fresh\', u\'critics_score\': 90}, u\'release_dates\': {u\'theater\': u\'2014-06-06\'}, u\'runtime\': 113, ...}, {u\'abridged_cast\': [{u\'characters\': [u\'Hazel\'], u\'id\': u\'770676364\', u\'name\': u\'Shailene Woodley\'}, {u\'characters\': [u\'Gus\'], u\'id\': u\'771409061\', u\'name\': u\'Ansel Elgort\'}, {u\'characters\': [u\'Van Houten\'], u\'id\': u\'162668400\', u\'name\': u\'Willem Dafoe\'}, {u\'characters\': [u\'Isaac\'], u\'id\': u\'459518388\', u\'name\': u\'Nat Wolff\'}, {u\'characters\': [u\'Frannie\'], u\'id\': u\'162654251\', u\'name\': u\'Laura Dern\'}], u\'alternate_ids\': {u\'imdb\': u\'2582846\'}, u\'critics_consensus\': u\'\', u\'id\': u\'771365948\', u\'links\': {u\'alternate\': u\'http://www.rottentomatoes.com/m/the_fault_in_our_stars/\', u\'cast\': u\'http://api.rottentomatoes.com/api/public/v1.0/movies/771365948/cast.json\', u\'reviews\': u\'http://api.rottentomatoes.com/api/public/v1.0/movies/771365948/reviews.json\', u\'self\': u\'http://api.rottentomatoes.com/api/public/v1.0/movies/771365948.json\', u\'similar\': u\'http://api.rottentomatoes.com/api/public/v1.0/movies/771365948/similar.json\'}, u\'mpaa_rating\': u\'PG-13\', u\'posters\': {u\'detailed\': u\'http://content6.flixster.com/movie/11/17/61/11176136_tmb.jpg\', u\'original\': u\'http://content6.flixster.com/movie/11/17/61/11176136_tmb.jpg\', u\'profile\': u\'http://content6.flixster.com/movie/11/17/61/11176136_tmb.jpg\', u\'thumbnail\': u\'http://content6.flixster.com/movie/11/17/61/11176136_tmb.jpg\'}, u\'ratings\': {u\'audience_rating\': u\'Upright\', u\'audience_score\': 90, u\'critics_rating\': u\'Certified Fresh\', u\'critics_score\': 80}, u\'release_dates\': {u\'theater\': u\'2014-06-06\'}, u\'runtime\': 125, ...}, {u\'abridged_cast\': [{u\'characters\': [u\'Gretta\'], u\'id\': u\'162654560\', u\'name\': u\'Keira Knightley\'}, {u\'characters\': [u\'Dan\'], u\'id\': u\'162653904\', u\'name\': u\'Mark Ruffalo\'}, {u\'characters\': [u\'Dave\'], u\'id\': u\'771263127\', u\'name\': u\'Adam Levine\'}, {u\'characters\': [u\'Miriam\'], u\'id\': u\'162652281\', u\'name\': u\'Catherine Keener\'}, {u\'characters\': [u\'Steve\'], u\'id\': u\'405587980\', u\'name\': u\'James Corden\'}], u\'alternate_ids\': {u\'imdb\': u\'1980929\'}, u\'critics_consensus\': u\'\', u\'id\': u\'771362035\', u\'links\': {u\'alternate\': u\'http://www.rottentomatoes.com/m/begin_again_2013/\', u\'cast\': u\'http://api.rottentomatoes.com/api/public/v1.0/movies/771362035/cast.json\', u\'reviews\': u\'http://api.rottentomatoes.com/api/public/v1.0/movies/771362035/reviews.json\', u\'self\': u\'http://api.rottentomatoes.com/api/public/v1.0/movies/771362035.json\', u\'similar\': u\'http://api.rottentomatoes.com/api/public/v1.0/movies/771362035/similar.json\'}, u\'mpaa_rating\': u\'R\', u\'posters\': {u\'detailed\': u\'http://content8.flixster.com/movie/11/17/87/11178758_tmb.jpg\', u\'original\': u\'http://content8.flixster.com/movie/11/17/87/11178758_tmb.jpg\', u\'profile\': u\'http://content8.flixster.com/movie/11/17/87/11178758_tmb.jpg\', u\'thumbnail\': u\'http://content8.flixster.com/movie/11/17/87/11178758_tmb.jpg\'}, u\'ratings\': {u\'audience_rating\': u\'Upright\', u\'audience_score\': 85, u\'critics_rating\': u\'Certified Fresh\', u\'critics_score\': 80}, u\'release_dates\': {u\'theater\': u\'2014-06-27\'}, u\'runtime\': 101, ...}, {u\'abridged_cast\': [{u\'characters\': [u\'Carl Casper\'], u\'id\': u\'162655175\', u\'name\': u\'Jon Favreau\'}, {u\'characters\': [u\'Inez\'], u\'id\': u\'162653186\', u\'name\': u\'Sofia Vergara\'}, {u\'characters\': [u\'Martin\'], u\'id\': u\'162652698\', u\'name\': u\'John Leguizamo\'}, {u\'characters\': [u\'Tony\'], u\'id\': u\'162685850\', u\'name\': u\'Bobby Cannavale\'}, {u\'characters\': [u\'Riva\'], u\'id\': u\'162659372\', u\'name\': u\'Dustin Hoffman\'}], u\'alternate_ids\': {u\'imdb\': u\'2883512\'}, u\'critics_consensus\': u\'\', u\'id\': u\'771357104\', u\'links\': {u\'alternate\': u\'http://www.rottentomatoes.com/m/chef_2014/\', u\'cast\': u\'http://api.rottentomatoes.com/api/public/v1.0/movies/771357104/cast.json\', u\'reviews\': u\'http://api.rottentomatoes.com/api/public/v1.0/movies/771357104/reviews.json\', u\'self\': u\'http://api.rottentomatoes.com/api/public/v1.0/movies/771357104.json\', u\'similar\': u\'http://api.rottentomatoes.com/api/public/v1.0/movies/771357104/similar.json\'}, u\'mpaa_rating\': u\'R\', u\'posters\': {u\'detailed\': u\'http://content9.flixster.com/movie/11/17/72/11177251_tmb.jpg\', u\'original\': u\'http://content9.flixster.com/movie/11/17/72/11177251_tmb.jpg\', u\'profile\': u\'http://content9.flixster.com/movie/11/17/72/11177251_tmb.jpg\', u\'thumbnail\': u\'http://content9.flixster.com/movie/11/17/72/11177251_tmb.jpg\'}, u\'ratings\': {u\'audience_rating\': u\'Upright\', u\'audience_score\': 89, u\'critics_rating\': u\'Certified Fresh\', u\'critics_score\': 88}, u\'release_dates\': {u\'theater\': u\'2014-05-09\'}, u\'runtime\': 115, ...}, {u\'abridged_cast\': [{u\'characters\': [u\'Charles Xavier/Professor X\'], u\'id\': u\'162714854\', u\'name\': u\'James McAvoy\'}, {u\'characters\': [u\'Erik Lensherr/Magneto\'], u\'id\': u\'364641814\', u\'name\': u\'Michael Fassbender\'}, {u\'characters\': [u\'Mystique/Raven\', u\'Raven\'], u\'id\': u\'770800260\', u\'name\': u\'Jennifer Lawrence\'}, {u\'characters\': [u\'Charles Xavier/Professor X\'], u\'id\': u\'162664301\', u\'name\': u\'Patrick Stewart\'}, {u\'characters\': [u\'Erik Lensherr/Magneto\'], u\'id\': u\'162653241\', u\'name\': u\'Ian McKellen\'}], u\'alternate_ids\': {u\'imdb\': u\'1877832\'}, u\'critics_consensus\': u\'\', u\'id\': u\'771308692\', u\'links\': {u\'alternate\': u\'http://www.rottentomatoes.com/m/x_men_days_of_future_past/\', u\'cast\': u\'http://api.rottentomatoes.com/api/public/v1.0/movies/771308692/cast.json\', u\'reviews\': u\'http://api.rottentomatoes.com/api/public/v1.0/movies/771308692/reviews.json\', u\'self\': u\'http://api.rottentomatoes.com/api/public/v1.0/movies/771308692.json\', u\'similar\': u\'http://api.rottentomatoes.com/api/public/v1.0/movies/771308692/similar.json\'}, u\'mpaa_rating\': u\'PG-13\', u\'posters\': {u\'detailed\': u\'http://content7.flixster.com/movie/11/17/70/11177049_tmb.jpg\', u\'original\': u\'http://content7.flixster.com/movie/11/17/70/11177049_tmb.jpg\', u\'profile\': u\'http://content7.flixster.com/movie/11/17/70/11177049_tmb.jpg\', u\'thumbnail\': u\'http://content7.flixster.com/movie/11/17/70/11177049_tmb.jpg\'}, u\'ratings\': {u\'audience_rating\': u\'Upright\', u\'audience_score\': 93, u\'critics_rating\': u\'Certified Fresh\', u\'critics_score\': 92}, u\'release_dates\': {u\'theater\': u\'2014-05-23\'}, u\'runtime\': 131, ...}, {u\'abridged_cast\': [{u\'characters\': [u\'Curtis\'], u\'id\': u\'162652784\', u\'name\': u\'Chris Evans\'}, {u\'characters\': [u\'Namgoong Minsu\'], u\'id\': u\'162653439\', u\'name\': u\'Song Kang-ho\'}, {u\'characters\': [u\'Edgar\'], u\'id\': u\'162653082\', u\'name\': u\'Jamie Bell\'}, {u\'characters\': [u\'Gilliam\'], u\'id\': u\'162653221\', u\'name\': u\'John Hurt\'}, {u\'characters\': [u\'Mason\'], u\'id\': u\'162654047\', u\'name\': u\'Tilda Swinton\'}], u\'alternate_ids\': {u\'imdb\': u\'1706620\'}, u\'critics_consensus\': u\'\', u\'id\': u\'771339986\', u\'links\': {u\'alternate\': u\'http://www.rottentomatoes.com/m/snowpiercer/\', u\'cast\': u\'http://api.rottentomatoes.com/api/public/v1.0/movies/771339986/cast.json\', u\'reviews\': u\'http://api.rottentomatoes.com/api/public/v1.0/movies/771339986/reviews.json\', u\'self\': u\'http://api.rottentomatoes.com/api/public/v1.0/movies/771339986.json\', u\'similar\': u\'http://api.rottentomatoes.com/api/public/v1.0/movies/771339986/similar.json\'}, u\'mpaa_rating\': u\'R\', u\'posters\': {u\'detailed\': u\'http://content8.flixster.com/movie/11/17/86/11178618_tmb.jpg\', u\'original\': u\'http://content8.flixster.com/movie/11/17/86/11178618_tmb.jpg\', u\'profile\': u\'http://content8.flixster.com/movie/11/17/86/11178618_tmb.jpg\', u\'thumbnail\': u\'http://content8.flixster.com/movie/11/17/86/11178618_tmb.jpg\'}, u\'ratings\': {u\'audience_rating\': u\'Upright\', u\'audience_score\': 77, u\'critics_rating\': u\'Certified Fresh\', u\'critics_score\': 94}, u\'release_dates\': {u\'theater\': u\'2014-06-27\'}, u\'runtime\': 126, ...}], u\'total\': 123}'
p167
sssS'traceback'
p168
S'Traceback (most recent call last):\n  File "/home/wantsomechocolate/Code/web2py/start/gluon/restricted.py", line 220, in restricted\n    exec ccode in environment\n  File "/home/wantsomechocolate/Code/web2py/start/applications/movie_suggest/controllers/default.py", line 104, in <module>\n  File "/home/wantsomechocolate/Code/web2py/start/gluon/globals.py", line 385, in <lambda>\n    self._caller = lambda f: f()\n  File "/home/wantsomechocolate/Code/web2py/start/applications/movie_suggest/controllers/default.py", line 34, in grab_movies\n    session.m.append(pulse(movie[\'title\']))\nTypeError: pulse() takes no arguments (1 given)\n'
p169
s.